
PJ_bootloader.elf:     file format elf32-littlearm

Sections:
Idx Name          Size      VMA       LMA       File off  Algn
  0 .isr_vector   0000010c  08000000  08000000  00010000  2**0
                  CONTENTS, ALLOC, LOAD, READONLY, DATA
  1 .text         00002014  0800010c  0800010c  0001010c  2**2
                  CONTENTS, ALLOC, LOAD, READONLY, CODE
  2 .rodata       00000124  08002120  08002120  00012120  2**0
                  CONTENTS, ALLOC, LOAD, READONLY, DATA
  3 .ARM.extab    00000000  08002244  08002244  0002000c  2**0
                  CONTENTS
  4 .ARM          00000000  08002244  08002244  0002000c  2**0
                  CONTENTS
  5 .preinit_array 00000000  08002244  08002244  0002000c  2**0
                  CONTENTS, ALLOC, LOAD, DATA
  6 .init_array   00000004  08002244  08002244  00012244  2**2
                  CONTENTS, ALLOC, LOAD, DATA
  7 .fini_array   00000004  08002248  08002248  00012248  2**2
                  CONTENTS, ALLOC, LOAD, DATA
  8 .data         0000000c  20000000  0800224c  00020000  2**2
                  CONTENTS, ALLOC, LOAD, DATA
  9 .bss          00000228  20000010  08002258  00020010  2**3
                  ALLOC
 10 ._user_heap_stack 00000600  20000238  08002258  00020238  2**0
                  ALLOC
 11 .ARM.attributes 00000029  00000000  00000000  0002000c  2**0
                  CONTENTS, READONLY
 12 .comment      0000007b  00000000  00000000  00020035  2**0
                  CONTENTS, READONLY
 13 .debug_frame  0000004c  00000000  00000000  000200b0  2**2
                  CONTENTS, READONLY, DEBUGGING

Disassembly of section .text:

0800010c <__do_global_dtors_aux>:
 800010c:	b510      	push	{r4, lr}
 800010e:	4c05      	ldr	r4, [pc, #20]	; (8000124 <__do_global_dtors_aux+0x18>)
 8000110:	7823      	ldrb	r3, [r4, #0]
 8000112:	b933      	cbnz	r3, 8000122 <__do_global_dtors_aux+0x16>
 8000114:	4b04      	ldr	r3, [pc, #16]	; (8000128 <__do_global_dtors_aux+0x1c>)
 8000116:	b113      	cbz	r3, 800011e <__do_global_dtors_aux+0x12>
 8000118:	4804      	ldr	r0, [pc, #16]	; (800012c <__do_global_dtors_aux+0x20>)
 800011a:	f3af 8000 	nop.w
 800011e:	2301      	movs	r3, #1
 8000120:	7023      	strb	r3, [r4, #0]
 8000122:	bd10      	pop	{r4, pc}
 8000124:	20000010 	.word	0x20000010
 8000128:	00000000 	.word	0x00000000
 800012c:	08002108 	.word	0x08002108

08000130 <frame_dummy>:
 8000130:	b508      	push	{r3, lr}
 8000132:	4b03      	ldr	r3, [pc, #12]	; (8000140 <frame_dummy+0x10>)
 8000134:	b11b      	cbz	r3, 800013e <frame_dummy+0xe>
 8000136:	4903      	ldr	r1, [pc, #12]	; (8000144 <frame_dummy+0x14>)
 8000138:	4803      	ldr	r0, [pc, #12]	; (8000148 <frame_dummy+0x18>)
 800013a:	f3af 8000 	nop.w
 800013e:	bd08      	pop	{r3, pc}
 8000140:	00000000 	.word	0x00000000
 8000144:	20000014 	.word	0x20000014
 8000148:	08002108 	.word	0x08002108

0800014c <eraseMemory>:
 800014c:	b510      	push	{r4, lr}
 800014e:	4604      	mov	r4, r0
 8000150:	b086      	sub	sp, #24
 8000152:	f000 feeb 	bl	8000f2c <HAL_FLASH_Unlock>
 8000156:	b9e8      	cbnz	r0, 8000194 <eraseMemory+0x48>
 8000158:	f000 ff04 	bl	8000f64 <HAL_FLASH_OB_Unlock>
 800015c:	b9f8      	cbnz	r0, 800019e <eraseMemory+0x52>
 800015e:	4b17      	ldr	r3, [pc, #92]	; (80001bc <eraseMemory+0x70>)
 8000160:	9002      	str	r0, [sp, #8]
 8000162:	a901      	add	r1, sp, #4
 8000164:	a802      	add	r0, sp, #8
 8000166:	e9cd 3404 	strd	r3, r4, [sp, #16]
 800016a:	f000 ffb5 	bl	80010d8 <HAL_FLASHEx_Erase>
 800016e:	f88d 0003 	strb.w	r0, [sp, #3]
 8000172:	f000 feed 	bl	8000f50 <HAL_FLASH_Lock>
 8000176:	b9b8      	cbnz	r0, 80001a8 <eraseMemory+0x5c>
 8000178:	f000 ff06 	bl	8000f88 <HAL_FLASH_OB_Lock>
 800017c:	b9c8      	cbnz	r0, 80001b2 <eraseMemory+0x66>
 800017e:	f89d 3003 	ldrb.w	r3, [sp, #3]
 8000182:	b113      	cbz	r3, 800018a <eraseMemory+0x3e>
 8000184:	2201      	movs	r2, #1
 8000186:	4b0e      	ldr	r3, [pc, #56]	; (80001c0 <eraseMemory+0x74>)
 8000188:	701a      	strb	r2, [r3, #0]
 800018a:	2200      	movs	r2, #0
 800018c:	4b0d      	ldr	r3, [pc, #52]	; (80001c4 <eraseMemory+0x78>)
 800018e:	601a      	str	r2, [r3, #0]
 8000190:	b006      	add	sp, #24
 8000192:	bd10      	pop	{r4, pc}
 8000194:	f000 fedc 	bl	8000f50 <HAL_FLASH_Lock>
 8000198:	2800      	cmp	r0, #0
 800019a:	d1fb      	bne.n	8000194 <eraseMemory+0x48>
 800019c:	e7d9      	b.n	8000152 <eraseMemory+0x6>
 800019e:	f000 fef3 	bl	8000f88 <HAL_FLASH_OB_Lock>
 80001a2:	2800      	cmp	r0, #0
 80001a4:	d1fb      	bne.n	800019e <eraseMemory+0x52>
 80001a6:	e7d7      	b.n	8000158 <eraseMemory+0xc>
 80001a8:	f000 fec0 	bl	8000f2c <HAL_FLASH_Unlock>
 80001ac:	2800      	cmp	r0, #0
 80001ae:	d1fb      	bne.n	80001a8 <eraseMemory+0x5c>
 80001b0:	e7df      	b.n	8000172 <eraseMemory+0x26>
 80001b2:	f000 fed7 	bl	8000f64 <HAL_FLASH_OB_Unlock>
 80001b6:	2800      	cmp	r0, #0
 80001b8:	d1fb      	bne.n	80001b2 <eraseMemory+0x66>
 80001ba:	e7dd      	b.n	8000178 <eraseMemory+0x2c>
 80001bc:	08005000 	.word	0x08005000
 80001c0:	20000034 	.word	0x20000034
 80001c4:	20000038 	.word	0x20000038

080001c8 <unlockFlashAndEraseMemory>:
 80001c8:	b530      	push	{r4, r5, lr}
 80001ca:	4605      	mov	r5, r0
 80001cc:	b087      	sub	sp, #28
 80001ce:	f000 fead 	bl	8000f2c <HAL_FLASH_Unlock>
 80001d2:	b9c8      	cbnz	r0, 8000208 <unlockFlashAndEraseMemory+0x40>
 80001d4:	f000 fec6 	bl	8000f64 <HAL_FLASH_OB_Unlock>
 80001d8:	b9d8      	cbnz	r0, 8000212 <unlockFlashAndEraseMemory+0x4a>
 80001da:	4c10      	ldr	r4, [pc, #64]	; (800021c <unlockFlashAndEraseMemory+0x54>)
 80001dc:	7822      	ldrb	r2, [r4, #0]
 80001de:	2a01      	cmp	r2, #1
 80001e0:	d00b      	beq.n	80001fa <unlockFlashAndEraseMemory+0x32>
 80001e2:	4b0f      	ldr	r3, [pc, #60]	; (8000220 <unlockFlashAndEraseMemory+0x58>)
 80001e4:	9002      	str	r0, [sp, #8]
 80001e6:	a901      	add	r1, sp, #4
 80001e8:	a802      	add	r0, sp, #8
 80001ea:	e9cd 3504 	strd	r3, r5, [sp, #16]
 80001ee:	f000 ff73 	bl	80010d8 <HAL_FLASHEx_Erase>
 80001f2:	f88d 0003 	strb.w	r0, [sp, #3]
 80001f6:	f89d 3003 	ldrb.w	r3, [sp, #3]
 80001fa:	2302      	movs	r3, #2
 80001fc:	2200      	movs	r2, #0
 80001fe:	7023      	strb	r3, [r4, #0]
 8000200:	4b08      	ldr	r3, [pc, #32]	; (8000224 <unlockFlashAndEraseMemory+0x5c>)
 8000202:	601a      	str	r2, [r3, #0]
 8000204:	b007      	add	sp, #28
 8000206:	bd30      	pop	{r4, r5, pc}
 8000208:	f000 fea2 	bl	8000f50 <HAL_FLASH_Lock>
 800020c:	2800      	cmp	r0, #0
 800020e:	d1fb      	bne.n	8000208 <unlockFlashAndEraseMemory+0x40>
 8000210:	e7dd      	b.n	80001ce <unlockFlashAndEraseMemory+0x6>
 8000212:	f000 feb9 	bl	8000f88 <HAL_FLASH_OB_Lock>
 8000216:	2800      	cmp	r0, #0
 8000218:	d1fb      	bne.n	8000212 <unlockFlashAndEraseMemory+0x4a>
 800021a:	e7db      	b.n	80001d4 <unlockFlashAndEraseMemory+0xc>
 800021c:	20000034 	.word	0x20000034
 8000220:	08005000 	.word	0x08005000
 8000224:	20000038 	.word	0x20000038

08000228 <lockFlash>:
 8000228:	b508      	push	{r3, lr}
 800022a:	f000 fe91 	bl	8000f50 <HAL_FLASH_Lock>
 800022e:	b930      	cbnz	r0, 800023e <lockFlash+0x16>
 8000230:	f000 feaa 	bl	8000f88 <HAL_FLASH_OB_Lock>
 8000234:	b940      	cbnz	r0, 8000248 <lockFlash+0x20>
 8000236:	2203      	movs	r2, #3
 8000238:	4b06      	ldr	r3, [pc, #24]	; (8000254 <lockFlash+0x2c>)
 800023a:	701a      	strb	r2, [r3, #0]
 800023c:	bd08      	pop	{r3, pc}
 800023e:	f000 fe75 	bl	8000f2c <HAL_FLASH_Unlock>
 8000242:	2800      	cmp	r0, #0
 8000244:	d1fb      	bne.n	800023e <lockFlash+0x16>
 8000246:	e7f0      	b.n	800022a <lockFlash+0x2>
 8000248:	f000 fe8c 	bl	8000f64 <HAL_FLASH_OB_Unlock>
 800024c:	2800      	cmp	r0, #0
 800024e:	d1fb      	bne.n	8000248 <lockFlash+0x20>
 8000250:	e7ee      	b.n	8000230 <lockFlash+0x8>
 8000252:	bf00      	nop
 8000254:	20000034 	.word	0x20000034

08000258 <deinitEverything>:
 8000258:	4814      	ldr	r0, [pc, #80]	; (80002ac <deinitEverything+0x54>)
 800025a:	b508      	push	{r3, lr}
 800025c:	6802      	ldr	r2, [r0, #0]
 800025e:	68d3      	ldr	r3, [r2, #12]
 8000260:	f023 0320 	bic.w	r3, r3, #32
 8000264:	60d3      	str	r3, [r2, #12]
 8000266:	f001 fe57 	bl	8001f18 <HAL_UART_DeInit>
 800026a:	4811      	ldr	r0, [pc, #68]	; (80002b0 <deinitEverything+0x58>)
 800026c:	f001 fc4e 	bl	8001b0c <HAL_TIM_PWM_DeInit>
 8000270:	200c      	movs	r0, #12
 8000272:	f000 fd1b 	bl	8000cac <HAL_NVIC_DisableIRQ>
 8000276:	4b0f      	ldr	r3, [pc, #60]	; (80002b4 <deinitEverything+0x5c>)
 8000278:	695a      	ldr	r2, [r3, #20]
 800027a:	f022 0201 	bic.w	r2, r2, #1
 800027e:	615a      	str	r2, [r3, #20]
 8000280:	699a      	ldr	r2, [r3, #24]
 8000282:	f022 0204 	bic.w	r2, r2, #4
 8000286:	619a      	str	r2, [r3, #24]
 8000288:	699a      	ldr	r2, [r3, #24]
 800028a:	f022 0208 	bic.w	r2, r2, #8
 800028e:	619a      	str	r2, [r3, #24]
 8000290:	699a      	ldr	r2, [r3, #24]
 8000292:	f022 0220 	bic.w	r2, r2, #32
 8000296:	619a      	str	r2, [r3, #24]
 8000298:	f001 f8c4 	bl	8001424 <HAL_RCC_DeInit>
 800029c:	f000 fc48 	bl	8000b30 <HAL_DeInit>
 80002a0:	2200      	movs	r2, #0
 80002a2:	4b05      	ldr	r3, [pc, #20]	; (80002b8 <deinitEverything+0x60>)
 80002a4:	601a      	str	r2, [r3, #0]
 80002a6:	605a      	str	r2, [r3, #4]
 80002a8:	609a      	str	r2, [r3, #8]
 80002aa:	bd08      	pop	{r3, pc}
 80002ac:	20000084 	.word	0x20000084
 80002b0:	200000c4 	.word	0x200000c4
 80002b4:	40021000 	.word	0x40021000
 80002b8:	e000e010 	.word	0xe000e010

080002bc <jumpToApp>:
 80002bc:	b510      	push	{r4, lr}
 80002be:	4604      	mov	r4, r0
 80002c0:	f7ff ffca 	bl	8000258 <deinitEverything>
 80002c4:	e9d4 3200 	ldrd	r3, r2, [r4]
 80002c8:	f383 8808 	msr	MSP, r3
 80002cc:	4710      	bx	r2
 80002ce:	bd10      	pop	{r4, pc}

080002d0 <clear_flashmode_flag>:
 80002d0:	b57f      	push	{r0, r1, r2, r3, r4, r5, r6, lr}
 80002d2:	f000 fe2b 	bl	8000f2c <HAL_FLASH_Unlock>
 80002d6:	b9c0      	cbnz	r0, 800030a <clear_flashmode_flag+0x3a>
 80002d8:	f000 fe44 	bl	8000f64 <HAL_FLASH_OB_Unlock>
 80002dc:	b9d0      	cbnz	r0, 8000314 <clear_flashmode_flag+0x44>
 80002de:	2301      	movs	r3, #1
 80002e0:	4a14      	ldr	r2, [pc, #80]	; (8000334 <clear_flashmode_flag+0x64>)
 80002e2:	9002      	str	r0, [sp, #8]
 80002e4:	a901      	add	r1, sp, #4
 80002e6:	a802      	add	r0, sp, #8
 80002e8:	e9cd 2304 	strd	r2, r3, [sp, #16]
 80002ec:	f000 fef4 	bl	80010d8 <HAL_FLASHEx_Erase>
 80002f0:	f88d 0003 	strb.w	r0, [sp, #3]
 80002f4:	f000 fe2c 	bl	8000f50 <HAL_FLASH_Lock>
 80002f8:	b988      	cbnz	r0, 800031e <clear_flashmode_flag+0x4e>
 80002fa:	f000 fe45 	bl	8000f88 <HAL_FLASH_OB_Lock>
 80002fe:	b998      	cbnz	r0, 8000328 <clear_flashmode_flag+0x58>
 8000300:	f89d 3003 	ldrb.w	r3, [sp, #3]
 8000304:	b007      	add	sp, #28
 8000306:	f85d fb04 	ldr.w	pc, [sp], #4
 800030a:	f000 fe21 	bl	8000f50 <HAL_FLASH_Lock>
 800030e:	2800      	cmp	r0, #0
 8000310:	d1fb      	bne.n	800030a <clear_flashmode_flag+0x3a>
 8000312:	e7de      	b.n	80002d2 <clear_flashmode_flag+0x2>
 8000314:	f000 fe38 	bl	8000f88 <HAL_FLASH_OB_Lock>
 8000318:	2800      	cmp	r0, #0
 800031a:	d1fb      	bne.n	8000314 <clear_flashmode_flag+0x44>
 800031c:	e7dc      	b.n	80002d8 <clear_flashmode_flag+0x8>
 800031e:	f000 fe05 	bl	8000f2c <HAL_FLASH_Unlock>
 8000322:	2800      	cmp	r0, #0
 8000324:	d1fb      	bne.n	800031e <clear_flashmode_flag+0x4e>
 8000326:	e7e5      	b.n	80002f4 <clear_flashmode_flag+0x24>
 8000328:	f000 fe1c 	bl	8000f64 <HAL_FLASH_OB_Unlock>
 800032c:	2800      	cmp	r0, #0
 800032e:	d1fb      	bne.n	8000328 <clear_flashmode_flag+0x58>
 8000330:	e7e3      	b.n	80002fa <clear_flashmode_flag+0x2a>
 8000332:	bf00      	nop
 8000334:	0801fffc 	.word	0x0801fffc

08000338 <string_compare>:
 8000338:	b570      	push	{r4, r5, r6, lr}
 800033a:	2400      	movs	r4, #0
 800033c:	4623      	mov	r3, r4
 800033e:	b2e5      	uxtb	r5, r4
 8000340:	4295      	cmp	r5, r2
 8000342:	d303      	bcc.n	800034c <string_compare+0x14>
 8000344:	1a9b      	subs	r3, r3, r2
 8000346:	4258      	negs	r0, r3
 8000348:	4158      	adcs	r0, r3
 800034a:	bd70      	pop	{r4, r5, r6, pc}
 800034c:	5d46      	ldrb	r6, [r0, r5]
 800034e:	5d4d      	ldrb	r5, [r1, r5]
 8000350:	3401      	adds	r4, #1
 8000352:	42ae      	cmp	r6, r5
 8000354:	bf06      	itte	eq
 8000356:	3301      	addeq	r3, #1
 8000358:	b2db      	uxtbeq	r3, r3
 800035a:	2300      	movne	r3, #0
 800035c:	e7ef      	b.n	800033e <string_compare+0x6>
	...

08000360 <serial_send>:
 8000360:	460a      	mov	r2, r1
 8000362:	2332      	movs	r3, #50	; 0x32
 8000364:	4601      	mov	r1, r0
 8000366:	4801      	ldr	r0, [pc, #4]	; (800036c <serial_send+0xc>)
 8000368:	f001 bdee 	b.w	8001f48 <HAL_UART_Transmit>
 800036c:	20000084 	.word	0x20000084

08000370 <flashWord>:
 8000370:	4b1b      	ldr	r3, [pc, #108]	; (80003e0 <flashWord+0x70>)
 8000372:	e92d 41f3 	stmdb	sp!, {r0, r1, r4, r5, r6, r7, r8, lr}
 8000376:	781b      	ldrb	r3, [r3, #0]
 8000378:	4607      	mov	r7, r0
 800037a:	2b02      	cmp	r3, #2
 800037c:	d126      	bne.n	80003cc <flashWord+0x5c>
 800037e:	f8df 8068 	ldr.w	r8, [pc, #104]	; 80003e8 <flashWord+0x78>
 8000382:	250a      	movs	r5, #10
 8000384:	4646      	mov	r6, r8
 8000386:	f8d8 4000 	ldr.w	r4, [r8]
 800038a:	2300      	movs	r3, #0
 800038c:	f104 6400 	add.w	r4, r4, #134217728	; 0x8000000
 8000390:	f504 44a0 	add.w	r4, r4, #20480	; 0x5000
 8000394:	463a      	mov	r2, r7
 8000396:	4621      	mov	r1, r4
 8000398:	2002      	movs	r0, #2
 800039a:	f000 fe29 	bl	8000ff0 <HAL_FLASH_Program>
 800039e:	f88d 0007 	strb.w	r0, [sp, #7]
 80003a2:	f89d 3007 	ldrb.w	r3, [sp, #7]
 80003a6:	b133      	cbz	r3, 80003b6 <flashWord+0x46>
 80003a8:	3d01      	subs	r5, #1
 80003aa:	f015 05ff 	ands.w	r5, r5, #255	; 0xff
 80003ae:	d002      	beq.n	80003b6 <flashWord+0x46>
 80003b0:	6823      	ldr	r3, [r4, #0]
 80003b2:	429f      	cmp	r7, r3
 80003b4:	d0e7      	beq.n	8000386 <flashWord+0x16>
 80003b6:	f89d 3007 	ldrb.w	r3, [sp, #7]
 80003ba:	f003 00ff 	and.w	r0, r3, #255	; 0xff
 80003be:	b963      	cbnz	r3, 80003da <flashWord+0x6a>
 80003c0:	6833      	ldr	r3, [r6, #0]
 80003c2:	3304      	adds	r3, #4
 80003c4:	6033      	str	r3, [r6, #0]
 80003c6:	b002      	add	sp, #8
 80003c8:	e8bd 81f0 	ldmia.w	sp!, {r4, r5, r6, r7, r8, pc}
 80003cc:	4805      	ldr	r0, [pc, #20]	; (80003e4 <flashWord+0x74>)
 80003ce:	2127      	movs	r1, #39	; 0x27
 80003d0:	f7ff ffc6 	bl	8000360 <serial_send>
 80003d4:	f06f 0001 	mvn.w	r0, #1
 80003d8:	e7f5      	b.n	80003c6 <flashWord+0x56>
 80003da:	f04f 30ff 	mov.w	r0, #4294967295
 80003de:	e7f2      	b.n	80003c6 <flashWord+0x56>
 80003e0:	20000034 	.word	0x20000034
 80003e4:	0800214b 	.word	0x0800214b
 80003e8:	20000038 	.word	0x20000038

080003ec <write_big_packet_flash>:
 80003ec:	b538      	push	{r3, r4, r5, lr}
 80003ee:	4604      	mov	r4, r0
 80003f0:	f500 7580 	add.w	r5, r0, #256	; 0x100
 80003f4:	78e3      	ldrb	r3, [r4, #3]
 80003f6:	7920      	ldrb	r0, [r4, #4]
 80003f8:	041b      	lsls	r3, r3, #16
 80003fa:	eb03 6300 	add.w	r3, r3, r0, lsl #24
 80003fe:	78a0      	ldrb	r0, [r4, #2]
 8000400:	eb03 2300 	add.w	r3, r3, r0, lsl #8
 8000404:	7860      	ldrb	r0, [r4, #1]
 8000406:	4418      	add	r0, r3
 8000408:	f7ff ffb2 	bl	8000370 <flashWord>
 800040c:	1c43      	adds	r3, r0, #1
 800040e:	d003      	beq.n	8000418 <write_big_packet_flash+0x2c>
 8000410:	3404      	adds	r4, #4
 8000412:	42a5      	cmp	r5, r4
 8000414:	d1ee      	bne.n	80003f4 <write_big_packet_flash+0x8>
 8000416:	2000      	movs	r0, #0
 8000418:	bd38      	pop	{r3, r4, r5, pc}
	...

0800041c <errorJump>:
 800041c:	211a      	movs	r1, #26
 800041e:	4801      	ldr	r0, [pc, #4]	; (8000424 <errorJump+0x8>)
 8000420:	f7ff bf9e 	b.w	8000360 <serial_send>
 8000424:	08002130 	.word	0x08002130

08000428 <bootloaderInit>:
 8000428:	2300      	movs	r3, #0
 800042a:	4a0d      	ldr	r2, [pc, #52]	; (8000460 <bootloaderInit+0x38>)
 800042c:	6013      	str	r3, [r2, #0]
 800042e:	4a0d      	ldr	r2, [pc, #52]	; (8000464 <bootloaderInit+0x3c>)
 8000430:	7013      	strb	r3, [r2, #0]
 8000432:	4a0d      	ldr	r2, [pc, #52]	; (8000468 <bootloaderInit+0x40>)
 8000434:	6811      	ldr	r1, [r2, #0]
 8000436:	4a0d      	ldr	r2, [pc, #52]	; (800046c <bootloaderInit+0x44>)
 8000438:	4291      	cmp	r1, r2
 800043a:	d010      	beq.n	800045e <bootloaderInit+0x36>
 800043c:	4a0c      	ldr	r2, [pc, #48]	; (8000470 <bootloaderInit+0x48>)
 800043e:	490d      	ldr	r1, [pc, #52]	; (8000474 <bootloaderInit+0x4c>)
 8000440:	6810      	ldr	r0, [r2, #0]
 8000442:	3204      	adds	r2, #4
 8000444:	3001      	adds	r0, #1
 8000446:	bf04      	itt	eq
 8000448:	3301      	addeq	r3, #1
 800044a:	b2db      	uxtbeq	r3, r3
 800044c:	428a      	cmp	r2, r1
 800044e:	d1f7      	bne.n	8000440 <bootloaderInit+0x18>
 8000450:	2b0a      	cmp	r3, #10
 8000452:	d002      	beq.n	800045a <bootloaderInit+0x32>
 8000454:	4806      	ldr	r0, [pc, #24]	; (8000470 <bootloaderInit+0x48>)
 8000456:	f7ff bf31 	b.w	80002bc <jumpToApp>
 800045a:	f7ff bfdf 	b.w	800041c <errorJump>
 800045e:	4770      	bx	lr
 8000460:	20000038 	.word	0x20000038
 8000464:	20000034 	.word	0x20000034
 8000468:	0801fffc 	.word	0x0801fffc
 800046c:	c0ffee00 	.word	0xc0ffee00
 8000470:	08005000 	.word	0x08005000
 8000474:	08005028 	.word	0x08005028

08000478 <messageHandler>:
 8000478:	b538      	push	{r3, r4, r5, lr}
 800047a:	1fcb      	subs	r3, r1, #7
 800047c:	2b0a      	cmp	r3, #10
 800047e:	4604      	mov	r4, r0
 8000480:	460d      	mov	r5, r1
 8000482:	d871      	bhi.n	8000568 <messageHandler+0xf0>
 8000484:	220a      	movs	r2, #10
 8000486:	4939      	ldr	r1, [pc, #228]	; (800056c <messageHandler+0xf4>)
 8000488:	f7ff ff56 	bl	8000338 <string_compare>
 800048c:	b1d0      	cbz	r0, 80004c4 <messageHandler+0x4c>
 800048e:	4b38      	ldr	r3, [pc, #224]	; (8000570 <messageHandler+0xf8>)
 8000490:	781b      	ldrb	r3, [r3, #0]
 8000492:	2b02      	cmp	r3, #2
 8000494:	d016      	beq.n	80004c4 <messageHandler+0x4c>
 8000496:	442c      	add	r4, r5
 8000498:	f814 3c03 	ldrb.w	r3, [r4, #-3]
 800049c:	f814 0c02 	ldrb.w	r0, [r4, #-2]
 80004a0:	041b      	lsls	r3, r3, #16
 80004a2:	eb03 6300 	add.w	r3, r3, r0, lsl #24
 80004a6:	f814 0c04 	ldrb.w	r0, [r4, #-4]
 80004aa:	eb03 2300 	add.w	r3, r3, r0, lsl #8
 80004ae:	f814 0c05 	ldrb.w	r0, [r4, #-5]
 80004b2:	4418      	add	r0, r3
 80004b4:	f7ff fe4a 	bl	800014c <eraseMemory>
 80004b8:	210f      	movs	r1, #15
 80004ba:	482e      	ldr	r0, [pc, #184]	; (8000574 <messageHandler+0xfc>)
 80004bc:	f7ff ff50 	bl	8000360 <serial_send>
 80004c0:	2001      	movs	r0, #1
 80004c2:	bd38      	pop	{r3, r4, r5, pc}
 80004c4:	220c      	movs	r2, #12
 80004c6:	492c      	ldr	r1, [pc, #176]	; (8000578 <messageHandler+0x100>)
 80004c8:	4620      	mov	r0, r4
 80004ca:	f7ff ff35 	bl	8000338 <string_compare>
 80004ce:	b1b0      	cbz	r0, 80004fe <messageHandler+0x86>
 80004d0:	442c      	add	r4, r5
 80004d2:	f814 3c03 	ldrb.w	r3, [r4, #-3]
 80004d6:	f814 0c02 	ldrb.w	r0, [r4, #-2]
 80004da:	041b      	lsls	r3, r3, #16
 80004dc:	eb03 6300 	add.w	r3, r3, r0, lsl #24
 80004e0:	f814 0c04 	ldrb.w	r0, [r4, #-4]
 80004e4:	eb03 2300 	add.w	r3, r3, r0, lsl #8
 80004e8:	f814 0c05 	ldrb.w	r0, [r4, #-5]
 80004ec:	4418      	add	r0, r3
 80004ee:	f7ff fe6b 	bl	80001c8 <unlockFlashAndEraseMemory>
 80004f2:	2200      	movs	r2, #0
 80004f4:	4b21      	ldr	r3, [pc, #132]	; (800057c <messageHandler+0x104>)
 80004f6:	2111      	movs	r1, #17
 80004f8:	601a      	str	r2, [r3, #0]
 80004fa:	4821      	ldr	r0, [pc, #132]	; (8000580 <messageHandler+0x108>)
 80004fc:	e7de      	b.n	80004bc <messageHandler+0x44>
 80004fe:	220e      	movs	r2, #14
 8000500:	4920      	ldr	r1, [pc, #128]	; (8000584 <messageHandler+0x10c>)
 8000502:	4620      	mov	r0, r4
 8000504:	f7ff ff18 	bl	8000338 <string_compare>
 8000508:	b1d8      	cbz	r0, 8000542 <messageHandler+0xca>
 800050a:	4b19      	ldr	r3, [pc, #100]	; (8000570 <messageHandler+0xf8>)
 800050c:	781b      	ldrb	r3, [r3, #0]
 800050e:	2b02      	cmp	r3, #2
 8000510:	d117      	bne.n	8000542 <messageHandler+0xca>
 8000512:	f7ff fe89 	bl	8000228 <lockFlash>
 8000516:	211d      	movs	r1, #29
 8000518:	481b      	ldr	r0, [pc, #108]	; (8000588 <messageHandler+0x110>)
 800051a:	f7ff ff21 	bl	8000360 <serial_send>
 800051e:	f7ff fed7 	bl	80002d0 <clear_flashmode_flag>
 8000522:	2064      	movs	r0, #100	; 0x64
 8000524:	f000 fb5c 	bl	8000be0 <HAL_Delay>
 8000528:	f3bf 8f4f 	dsb	sy
 800052c:	4917      	ldr	r1, [pc, #92]	; (800058c <messageHandler+0x114>)
 800052e:	4b18      	ldr	r3, [pc, #96]	; (8000590 <messageHandler+0x118>)
 8000530:	68ca      	ldr	r2, [r1, #12]
 8000532:	f402 62e0 	and.w	r2, r2, #1792	; 0x700
 8000536:	4313      	orrs	r3, r2
 8000538:	60cb      	str	r3, [r1, #12]
 800053a:	f3bf 8f4f 	dsb	sy
 800053e:	bf00      	nop
 8000540:	e7fd      	b.n	800053e <messageHandler+0xc6>
 8000542:	220d      	movs	r2, #13
 8000544:	4913      	ldr	r1, [pc, #76]	; (8000594 <messageHandler+0x11c>)
 8000546:	4620      	mov	r0, r4
 8000548:	f7ff fef6 	bl	8000338 <string_compare>
 800054c:	2800      	cmp	r0, #0
 800054e:	d0b8      	beq.n	80004c2 <messageHandler+0x4a>
 8000550:	4b07      	ldr	r3, [pc, #28]	; (8000570 <messageHandler+0xf8>)
 8000552:	781b      	ldrb	r3, [r3, #0]
 8000554:	2b02      	cmp	r3, #2
 8000556:	d107      	bne.n	8000568 <messageHandler+0xf0>
 8000558:	f7ff fe66 	bl	8000228 <lockFlash>
 800055c:	2000      	movs	r0, #0
 800055e:	f7ff fdf5 	bl	800014c <eraseMemory>
 8000562:	2110      	movs	r1, #16
 8000564:	480c      	ldr	r0, [pc, #48]	; (8000598 <messageHandler+0x120>)
 8000566:	e7a9      	b.n	80004bc <messageHandler+0x44>
 8000568:	2000      	movs	r0, #0
 800056a:	e7aa      	b.n	80004c2 <messageHandler+0x4a>
 800056c:	08002173 	.word	0x08002173
 8000570:	20000034 	.word	0x20000034
 8000574:	0800217e 	.word	0x0800217e
 8000578:	0800218e 	.word	0x0800218e
 800057c:	2000003c 	.word	0x2000003c
 8000580:	0800219b 	.word	0x0800219b
 8000584:	080021ad 	.word	0x080021ad
 8000588:	080021bc 	.word	0x080021bc
 800058c:	e000ed00 	.word	0xe000ed00
 8000590:	05fa0004 	.word	0x05fa0004
 8000594:	080021da 	.word	0x080021da
 8000598:	080021e8 	.word	0x080021e8

0800059c <SystemClock_Config>:
 800059c:	b510      	push	{r4, lr}
 800059e:	2414      	movs	r4, #20
 80005a0:	b090      	sub	sp, #64	; 0x40
 80005a2:	4622      	mov	r2, r4
 80005a4:	2100      	movs	r1, #0
 80005a6:	a808      	add	r0, sp, #32
 80005a8:	f001 fda6 	bl	80020f8 <memset>
 80005ac:	4622      	mov	r2, r4
 80005ae:	2100      	movs	r1, #0
 80005b0:	a801      	add	r0, sp, #4
 80005b2:	f001 fda1 	bl	80020f8 <memset>
 80005b6:	2402      	movs	r4, #2
 80005b8:	2201      	movs	r2, #1
 80005ba:	f44f 3380 	mov.w	r3, #65536	; 0x10000
 80005be:	e9cd 2306 	strd	r2, r3, [sp, #24]
 80005c2:	e9cd 430d 	strd	r4, r3, [sp, #52]	; 0x34
 80005c6:	f44f 13e0 	mov.w	r3, #1835008	; 0x1c0000
 80005ca:	a806      	add	r0, sp, #24
 80005cc:	920a      	str	r2, [sp, #40]	; 0x28
 80005ce:	930f      	str	r3, [sp, #60]	; 0x3c
 80005d0:	f000 ff94 	bl	80014fc <HAL_RCC_OscConfig>
 80005d4:	230f      	movs	r3, #15
 80005d6:	f44f 6280 	mov.w	r2, #1024	; 0x400
 80005da:	e9cd 3401 	strd	r3, r4, [sp, #4]
 80005de:	2300      	movs	r3, #0
 80005e0:	4621      	mov	r1, r4
 80005e2:	a801      	add	r0, sp, #4
 80005e4:	e9cd 3203 	strd	r3, r2, [sp, #12]
 80005e8:	9305      	str	r3, [sp, #20]
 80005ea:	f001 f95f 	bl	80018ac <HAL_RCC_ClockConfig>
 80005ee:	b010      	add	sp, #64	; 0x40
 80005f0:	bd10      	pop	{r4, pc}
	...

080005f4 <main>:
 80005f4:	b580      	push	{r7, lr}
 80005f6:	4d73      	ldr	r5, [pc, #460]	; (80007c4 <main+0x1d0>)
 80005f8:	b096      	sub	sp, #88	; 0x58
 80005fa:	f000 facd 	bl	8000b98 <HAL_Init>
 80005fe:	f7ff ffcd 	bl	800059c <SystemClock_Config>
 8000602:	2210      	movs	r2, #16
 8000604:	2100      	movs	r1, #0
 8000606:	a80e      	add	r0, sp, #56	; 0x38
 8000608:	f001 fd76 	bl	80020f8 <memset>
 800060c:	69ab      	ldr	r3, [r5, #24]
 800060e:	2201      	movs	r2, #1
 8000610:	f043 0320 	orr.w	r3, r3, #32
 8000614:	61ab      	str	r3, [r5, #24]
 8000616:	69ab      	ldr	r3, [r5, #24]
 8000618:	f44f 5100 	mov.w	r1, #8192	; 0x2000
 800061c:	f003 0320 	and.w	r3, r3, #32
 8000620:	9301      	str	r3, [sp, #4]
 8000622:	9b01      	ldr	r3, [sp, #4]
 8000624:	69ab      	ldr	r3, [r5, #24]
 8000626:	4868      	ldr	r0, [pc, #416]	; (80007c8 <main+0x1d4>)
 8000628:	f043 0308 	orr.w	r3, r3, #8
 800062c:	61ab      	str	r3, [r5, #24]
 800062e:	69ab      	ldr	r3, [r5, #24]
 8000630:	f44f 5600 	mov.w	r6, #8192	; 0x2000
 8000634:	f003 0308 	and.w	r3, r3, #8
 8000638:	9302      	str	r3, [sp, #8]
 800063a:	9b02      	ldr	r3, [sp, #8]
 800063c:	69ab      	ldr	r3, [r5, #24]
 800063e:	2400      	movs	r4, #0
 8000640:	f043 0304 	orr.w	r3, r3, #4
 8000644:	61ab      	str	r3, [r5, #24]
 8000646:	69ab      	ldr	r3, [r5, #24]
 8000648:	f8df 817c 	ldr.w	r8, [pc, #380]	; 80007c8 <main+0x1d4>
 800064c:	f003 0304 	and.w	r3, r3, #4
 8000650:	9303      	str	r3, [sp, #12]
 8000652:	9b03      	ldr	r3, [sp, #12]
 8000654:	69ab      	ldr	r3, [r5, #24]
 8000656:	4f5d      	ldr	r7, [pc, #372]	; (80007cc <main+0x1d8>)
 8000658:	f043 0310 	orr.w	r3, r3, #16
 800065c:	61ab      	str	r3, [r5, #24]
 800065e:	69ab      	ldr	r3, [r5, #24]
 8000660:	f003 0310 	and.w	r3, r3, #16
 8000664:	9304      	str	r3, [sp, #16]
 8000666:	9b04      	ldr	r3, [sp, #16]
 8000668:	f000 fed6 	bl	8001418 <HAL_GPIO_WritePin>
 800066c:	2301      	movs	r3, #1
 800066e:	e9cd 630e 	strd	r6, r3, [sp, #56]	; 0x38
 8000672:	2302      	movs	r3, #2
 8000674:	a90e      	add	r1, sp, #56	; 0x38
 8000676:	4854      	ldr	r0, [pc, #336]	; (80007c8 <main+0x1d4>)
 8000678:	e9cd 4310 	strd	r4, r3, [sp, #64]	; 0x40
 800067c:	f000 fd78 	bl	8001170 <HAL_GPIO_Init>
 8000680:	696b      	ldr	r3, [r5, #20]
 8000682:	4622      	mov	r2, r4
 8000684:	f043 0301 	orr.w	r3, r3, #1
 8000688:	616b      	str	r3, [r5, #20]
 800068a:	696b      	ldr	r3, [r5, #20]
 800068c:	2106      	movs	r1, #6
 800068e:	f003 0301 	and.w	r3, r3, #1
 8000692:	9300      	str	r3, [sp, #0]
 8000694:	200c      	movs	r0, #12
 8000696:	9b00      	ldr	r3, [sp, #0]
 8000698:	f000 fac6 	bl	8000c28 <HAL_NVIC_SetPriority>
 800069c:	200c      	movs	r0, #12
 800069e:	f000 faf7 	bl	8000c90 <HAL_NVIC_EnableIRQ>
 80006a2:	221c      	movs	r2, #28
 80006a4:	4621      	mov	r1, r4
 80006a6:	eb0d 0002 	add.w	r0, sp, r2
 80006aa:	e9cd 4405 	strd	r4, r4, [sp, #20]
 80006ae:	f001 fd23 	bl	80020f8 <memset>
 80006b2:	2220      	movs	r2, #32
 80006b4:	4621      	mov	r1, r4
 80006b6:	a80e      	add	r0, sp, #56	; 0x38
 80006b8:	f001 fd1e 	bl	80020f8 <memset>
 80006bc:	4d44      	ldr	r5, [pc, #272]	; (80007d0 <main+0x1dc>)
 80006be:	4b45      	ldr	r3, [pc, #276]	; (80007d4 <main+0x1e0>)
 80006c0:	4628      	mov	r0, r5
 80006c2:	e9c5 3400 	strd	r3, r4, [r5]
 80006c6:	235a      	movs	r3, #90	; 0x5a
 80006c8:	60ac      	str	r4, [r5, #8]
 80006ca:	e9c5 3403 	strd	r3, r4, [r5, #12]
 80006ce:	e9c5 4405 	strd	r4, r4, [r5, #20]
 80006d2:	f001 fa83 	bl	8001bdc <HAL_TIM_PWM_Init>
 80006d6:	a905      	add	r1, sp, #20
 80006d8:	4628      	mov	r0, r5
 80006da:	e9cd 4405 	strd	r4, r4, [sp, #20]
 80006de:	f001 fb33 	bl	8001d48 <HAL_TIMEx_MasterConfigSynchronization>
 80006e2:	2360      	movs	r3, #96	; 0x60
 80006e4:	4622      	mov	r2, r4
 80006e6:	a907      	add	r1, sp, #28
 80006e8:	4628      	mov	r0, r5
 80006ea:	e9cd 3407 	strd	r3, r4, [sp, #28]
 80006ee:	e9cd 4409 	strd	r4, r4, [sp, #36]	; 0x24
 80006f2:	e9cd 440b 	strd	r4, r4, [sp, #44]	; 0x2c
 80006f6:	940d      	str	r4, [sp, #52]	; 0x34
 80006f8:	f001 fac8 	bl	8001c8c <HAL_TIM_PWM_ConfigChannel>
 80006fc:	a90e      	add	r1, sp, #56	; 0x38
 80006fe:	4628      	mov	r0, r5
 8000700:	e9cd 4612 	strd	r4, r6, [sp, #72]	; 0x48
 8000704:	e9cd 440e 	strd	r4, r4, [sp, #56]	; 0x38
 8000708:	e9cd 4410 	strd	r4, r4, [sp, #64]	; 0x40
 800070c:	9415      	str	r4, [sp, #84]	; 0x54
 800070e:	f001 fb4d 	bl	8001dac <HAL_TIMEx_ConfigBreakDeadTime>
 8000712:	4628      	mov	r0, r5
 8000714:	f000 f8c8 	bl	80008a8 <HAL_TIM_MspPostInit>
 8000718:	f44f 33e1 	mov.w	r3, #115200	; 0x1c200
 800071c:	4d2e      	ldr	r5, [pc, #184]	; (80007d8 <main+0x1e4>)
 800071e:	4a2f      	ldr	r2, [pc, #188]	; (80007dc <main+0x1e8>)
 8000720:	4628      	mov	r0, r5
 8000722:	e9c5 2300 	strd	r2, r3, [r5]
 8000726:	230c      	movs	r3, #12
 8000728:	e9c5 4402 	strd	r4, r4, [r5, #8]
 800072c:	e9c5 3405 	strd	r3, r4, [r5, #20]
 8000730:	612c      	str	r4, [r5, #16]
 8000732:	61ec      	str	r4, [r5, #28]
 8000734:	f001 fbc2 	bl	8001ebc <HAL_UART_Init>
 8000738:	682a      	ldr	r2, [r5, #0]
 800073a:	2114      	movs	r1, #20
 800073c:	68d3      	ldr	r3, [r2, #12]
 800073e:	4828      	ldr	r0, [pc, #160]	; (80007e0 <main+0x1ec>)
 8000740:	f043 0320 	orr.w	r3, r3, #32
 8000744:	60d3      	str	r3, [r2, #12]
 8000746:	f7ff fe0b 	bl	8000360 <serial_send>
 800074a:	f7ff fe6d 	bl	8000428 <bootloaderInit>
 800074e:	4e25      	ldr	r6, [pc, #148]	; (80007e4 <main+0x1f0>)
 8000750:	7833      	ldrb	r3, [r6, #0]
 8000752:	2b01      	cmp	r3, #1
 8000754:	d1fc      	bne.n	8000750 <main+0x15c>
 8000756:	2200      	movs	r2, #0
 8000758:	f44f 5100 	mov.w	r1, #8192	; 0x2000
 800075c:	4640      	mov	r0, r8
 800075e:	f000 fe5b 	bl	8001418 <HAL_GPIO_WritePin>
 8000762:	4638      	mov	r0, r7
 8000764:	f7ff fe42 	bl	80003ec <write_big_packet_flash>
 8000768:	f8df 9088 	ldr.w	r9, [pc, #136]	; 80007f4 <main+0x200>
 800076c:	4604      	mov	r4, r0
 800076e:	b9b0      	cbnz	r0, 800079e <main+0x1aa>
 8000770:	4a1d      	ldr	r2, [pc, #116]	; (80007e8 <main+0x1f4>)
 8000772:	4601      	mov	r1, r0
 8000774:	6813      	ldr	r3, [r2, #0]
 8000776:	4638      	mov	r0, r7
 8000778:	3301      	adds	r3, #1
 800077a:	6013      	str	r3, [r2, #0]
 800077c:	f44f 7281 	mov.w	r2, #258	; 0x102
 8000780:	f001 fcba 	bl	80020f8 <memset>
 8000784:	210a      	movs	r1, #10
 8000786:	682a      	ldr	r2, [r5, #0]
 8000788:	7034      	strb	r4, [r6, #0]
 800078a:	68d3      	ldr	r3, [r2, #12]
 800078c:	4817      	ldr	r0, [pc, #92]	; (80007ec <main+0x1f8>)
 800078e:	f043 0320 	orr.w	r3, r3, #32
 8000792:	f8a9 4000 	strh.w	r4, [r9]
 8000796:	60d3      	str	r3, [r2, #12]
 8000798:	f7ff fde2 	bl	8000360 <serial_send>
 800079c:	e7d8      	b.n	8000750 <main+0x15c>
 800079e:	f44f 7281 	mov.w	r2, #258	; 0x102
 80007a2:	2100      	movs	r1, #0
 80007a4:	4638      	mov	r0, r7
 80007a6:	f001 fca7 	bl	80020f8 <memset>
 80007aa:	2300      	movs	r3, #0
 80007ac:	682a      	ldr	r2, [r5, #0]
 80007ae:	7033      	strb	r3, [r6, #0]
 80007b0:	f8a9 3000 	strh.w	r3, [r9]
 80007b4:	68d3      	ldr	r3, [r2, #12]
 80007b6:	2110      	movs	r1, #16
 80007b8:	f043 0320 	orr.w	r3, r3, #32
 80007bc:	60d3      	str	r3, [r2, #12]
 80007be:	480c      	ldr	r0, [pc, #48]	; (80007f0 <main+0x1fc>)
 80007c0:	e7ea      	b.n	8000798 <main+0x1a4>
 80007c2:	bf00      	nop
 80007c4:	40021000 	.word	0x40021000
 80007c8:	40011000 	.word	0x40011000
 80007cc:	2000010c 	.word	0x2000010c
 80007d0:	200000c4 	.word	0x200000c4
 80007d4:	40012c00 	.word	0x40012c00
 80007d8:	20000084 	.word	0x20000084
 80007dc:	40004800 	.word	0x40004800
 80007e0:	080021f9 	.word	0x080021f9
 80007e4:	2000002c 	.word	0x2000002c
 80007e8:	2000003c 	.word	0x2000003c
 80007ec:	0800220e 	.word	0x0800220e
 80007f0:	08002219 	.word	0x08002219
 80007f4:	2000002e 	.word	0x2000002e

080007f8 <Error_Handler>:
 80007f8:	4770      	bx	lr
	...

080007fc <HAL_MspInit>:
 80007fc:	4b0e      	ldr	r3, [pc, #56]	; (8000838 <HAL_MspInit+0x3c>)
 80007fe:	b082      	sub	sp, #8
 8000800:	699a      	ldr	r2, [r3, #24]
 8000802:	f042 0201 	orr.w	r2, r2, #1
 8000806:	619a      	str	r2, [r3, #24]
 8000808:	699a      	ldr	r2, [r3, #24]
 800080a:	f002 0201 	and.w	r2, r2, #1
 800080e:	9200      	str	r2, [sp, #0]
 8000810:	9a00      	ldr	r2, [sp, #0]
 8000812:	69da      	ldr	r2, [r3, #28]
 8000814:	f042 5280 	orr.w	r2, r2, #268435456	; 0x10000000
 8000818:	61da      	str	r2, [r3, #28]
 800081a:	69db      	ldr	r3, [r3, #28]
 800081c:	4a07      	ldr	r2, [pc, #28]	; (800083c <HAL_MspInit+0x40>)
 800081e:	f003 5380 	and.w	r3, r3, #268435456	; 0x10000000
 8000822:	9301      	str	r3, [sp, #4]
 8000824:	9b01      	ldr	r3, [sp, #4]
 8000826:	6853      	ldr	r3, [r2, #4]
 8000828:	f023 63e0 	bic.w	r3, r3, #117440512	; 0x7000000
 800082c:	f043 7300 	orr.w	r3, r3, #33554432	; 0x2000000
 8000830:	6053      	str	r3, [r2, #4]
 8000832:	b002      	add	sp, #8
 8000834:	4770      	bx	lr
 8000836:	bf00      	nop
 8000838:	40021000 	.word	0x40021000
 800083c:	40010000 	.word	0x40010000

08000840 <HAL_TIM_PWM_MspInit>:
 8000840:	b537      	push	{r0, r1, r2, r4, r5, lr}
 8000842:	4b16      	ldr	r3, [pc, #88]	; (800089c <HAL_TIM_PWM_MspInit+0x5c>)
 8000844:	6802      	ldr	r2, [r0, #0]
 8000846:	4605      	mov	r5, r0
 8000848:	429a      	cmp	r2, r3
 800084a:	d124      	bne.n	8000896 <HAL_TIM_PWM_MspInit+0x56>
 800084c:	f503 4364 	add.w	r3, r3, #58368	; 0xe400
 8000850:	699a      	ldr	r2, [r3, #24]
 8000852:	4c13      	ldr	r4, [pc, #76]	; (80008a0 <HAL_TIM_PWM_MspInit+0x60>)
 8000854:	f442 6200 	orr.w	r2, r2, #2048	; 0x800
 8000858:	619a      	str	r2, [r3, #24]
 800085a:	699b      	ldr	r3, [r3, #24]
 800085c:	4a11      	ldr	r2, [pc, #68]	; (80008a4 <HAL_TIM_PWM_MspInit+0x64>)
 800085e:	f403 6300 	and.w	r3, r3, #2048	; 0x800
 8000862:	9301      	str	r3, [sp, #4]
 8000864:	9b01      	ldr	r3, [sp, #4]
 8000866:	2310      	movs	r3, #16
 8000868:	e9c4 2300 	strd	r2, r3, [r4]
 800086c:	2300      	movs	r3, #0
 800086e:	2280      	movs	r2, #128	; 0x80
 8000870:	f44f 7180 	mov.w	r1, #256	; 0x100
 8000874:	e9c4 3202 	strd	r3, r2, [r4, #8]
 8000878:	f44f 6280 	mov.w	r2, #1024	; 0x400
 800087c:	e9c4 1204 	strd	r1, r2, [r4, #16]
 8000880:	2220      	movs	r2, #32
 8000882:	4620      	mov	r0, r4
 8000884:	e9c4 2306 	strd	r2, r3, [r4, #24]
 8000888:	f000 fa3a 	bl	8000d00 <HAL_DMA_Init>
 800088c:	b108      	cbz	r0, 8000892 <HAL_TIM_PWM_MspInit+0x52>
 800088e:	f7ff ffb3 	bl	80007f8 <Error_Handler>
 8000892:	626c      	str	r4, [r5, #36]	; 0x24
 8000894:	6265      	str	r5, [r4, #36]	; 0x24
 8000896:	b003      	add	sp, #12
 8000898:	bd30      	pop	{r4, r5, pc}
 800089a:	bf00      	nop
 800089c:	40012c00 	.word	0x40012c00
 80008a0:	20000040 	.word	0x20000040
 80008a4:	4002001c 	.word	0x4002001c

080008a8 <HAL_TIM_MspPostInit>:
 80008a8:	b510      	push	{r4, lr}
 80008aa:	4604      	mov	r4, r0
 80008ac:	b086      	sub	sp, #24
 80008ae:	2210      	movs	r2, #16
 80008b0:	2100      	movs	r1, #0
 80008b2:	a802      	add	r0, sp, #8
 80008b4:	f001 fc20 	bl	80020f8 <memset>
 80008b8:	6822      	ldr	r2, [r4, #0]
 80008ba:	4b0d      	ldr	r3, [pc, #52]	; (80008f0 <HAL_TIM_MspPostInit+0x48>)
 80008bc:	429a      	cmp	r2, r3
 80008be:	d114      	bne.n	80008ea <HAL_TIM_MspPostInit+0x42>
 80008c0:	f503 4364 	add.w	r3, r3, #58368	; 0xe400
 80008c4:	699a      	ldr	r2, [r3, #24]
 80008c6:	a902      	add	r1, sp, #8
 80008c8:	f042 0204 	orr.w	r2, r2, #4
 80008cc:	619a      	str	r2, [r3, #24]
 80008ce:	699b      	ldr	r3, [r3, #24]
 80008d0:	f44f 7280 	mov.w	r2, #256	; 0x100
 80008d4:	f003 0304 	and.w	r3, r3, #4
 80008d8:	9301      	str	r3, [sp, #4]
 80008da:	9b01      	ldr	r3, [sp, #4]
 80008dc:	2302      	movs	r3, #2
 80008de:	4805      	ldr	r0, [pc, #20]	; (80008f4 <HAL_TIM_MspPostInit+0x4c>)
 80008e0:	e9cd 2302 	strd	r2, r3, [sp, #8]
 80008e4:	9305      	str	r3, [sp, #20]
 80008e6:	f000 fc43 	bl	8001170 <HAL_GPIO_Init>
 80008ea:	b006      	add	sp, #24
 80008ec:	bd10      	pop	{r4, pc}
 80008ee:	bf00      	nop
 80008f0:	40012c00 	.word	0x40012c00
 80008f4:	40010800 	.word	0x40010800

080008f8 <HAL_TIM_PWM_MspDeInit>:
 80008f8:	6802      	ldr	r2, [r0, #0]
 80008fa:	4b06      	ldr	r3, [pc, #24]	; (8000914 <HAL_TIM_PWM_MspDeInit+0x1c>)
 80008fc:	429a      	cmp	r2, r3
 80008fe:	d107      	bne.n	8000910 <HAL_TIM_PWM_MspDeInit+0x18>
 8000900:	4a05      	ldr	r2, [pc, #20]	; (8000918 <HAL_TIM_PWM_MspDeInit+0x20>)
 8000902:	6a40      	ldr	r0, [r0, #36]	; 0x24
 8000904:	6993      	ldr	r3, [r2, #24]
 8000906:	f423 6300 	bic.w	r3, r3, #2048	; 0x800
 800090a:	6193      	str	r3, [r2, #24]
 800090c:	f000 ba28 	b.w	8000d60 <HAL_DMA_DeInit>
 8000910:	4770      	bx	lr
 8000912:	bf00      	nop
 8000914:	40012c00 	.word	0x40012c00
 8000918:	40021000 	.word	0x40021000

0800091c <HAL_UART_MspInit>:
 800091c:	b510      	push	{r4, lr}
 800091e:	4604      	mov	r4, r0
 8000920:	b086      	sub	sp, #24
 8000922:	2210      	movs	r2, #16
 8000924:	2100      	movs	r1, #0
 8000926:	a802      	add	r0, sp, #8
 8000928:	f001 fbe6 	bl	80020f8 <memset>
 800092c:	6822      	ldr	r2, [r4, #0]
 800092e:	4b1b      	ldr	r3, [pc, #108]	; (800099c <HAL_UART_MspInit+0x80>)
 8000930:	429a      	cmp	r2, r3
 8000932:	d130      	bne.n	8000996 <HAL_UART_MspInit+0x7a>
 8000934:	f503 33e4 	add.w	r3, r3, #116736	; 0x1c800
 8000938:	69da      	ldr	r2, [r3, #28]
 800093a:	a902      	add	r1, sp, #8
 800093c:	f442 2280 	orr.w	r2, r2, #262144	; 0x40000
 8000940:	61da      	str	r2, [r3, #28]
 8000942:	69da      	ldr	r2, [r3, #28]
 8000944:	4816      	ldr	r0, [pc, #88]	; (80009a0 <HAL_UART_MspInit+0x84>)
 8000946:	f402 2280 	and.w	r2, r2, #262144	; 0x40000
 800094a:	9200      	str	r2, [sp, #0]
 800094c:	9a00      	ldr	r2, [sp, #0]
 800094e:	699a      	ldr	r2, [r3, #24]
 8000950:	2400      	movs	r4, #0
 8000952:	f042 0208 	orr.w	r2, r2, #8
 8000956:	619a      	str	r2, [r3, #24]
 8000958:	699b      	ldr	r3, [r3, #24]
 800095a:	f44f 6280 	mov.w	r2, #1024	; 0x400
 800095e:	f003 0308 	and.w	r3, r3, #8
 8000962:	9301      	str	r3, [sp, #4]
 8000964:	9b01      	ldr	r3, [sp, #4]
 8000966:	2302      	movs	r3, #2
 8000968:	e9cd 2302 	strd	r2, r3, [sp, #8]
 800096c:	2303      	movs	r3, #3
 800096e:	9305      	str	r3, [sp, #20]
 8000970:	f000 fbfe 	bl	8001170 <HAL_GPIO_Init>
 8000974:	f44f 6300 	mov.w	r3, #2048	; 0x800
 8000978:	a902      	add	r1, sp, #8
 800097a:	4809      	ldr	r0, [pc, #36]	; (80009a0 <HAL_UART_MspInit+0x84>)
 800097c:	e9cd 3402 	strd	r3, r4, [sp, #8]
 8000980:	9404      	str	r4, [sp, #16]
 8000982:	f000 fbf5 	bl	8001170 <HAL_GPIO_Init>
 8000986:	2027      	movs	r0, #39	; 0x27
 8000988:	4622      	mov	r2, r4
 800098a:	2105      	movs	r1, #5
 800098c:	f000 f94c 	bl	8000c28 <HAL_NVIC_SetPriority>
 8000990:	2027      	movs	r0, #39	; 0x27
 8000992:	f000 f97d 	bl	8000c90 <HAL_NVIC_EnableIRQ>
 8000996:	b006      	add	sp, #24
 8000998:	bd10      	pop	{r4, pc}
 800099a:	bf00      	nop
 800099c:	40004800 	.word	0x40004800
 80009a0:	40010c00 	.word	0x40010c00

080009a4 <HAL_UART_MspDeInit>:
 80009a4:	b508      	push	{r3, lr}
 80009a6:	6802      	ldr	r2, [r0, #0]
 80009a8:	4b09      	ldr	r3, [pc, #36]	; (80009d0 <HAL_UART_MspDeInit+0x2c>)
 80009aa:	429a      	cmp	r2, r3
 80009ac:	d10e      	bne.n	80009cc <HAL_UART_MspDeInit+0x28>
 80009ae:	4a09      	ldr	r2, [pc, #36]	; (80009d4 <HAL_UART_MspDeInit+0x30>)
 80009b0:	4809      	ldr	r0, [pc, #36]	; (80009d8 <HAL_UART_MspDeInit+0x34>)
 80009b2:	69d3      	ldr	r3, [r2, #28]
 80009b4:	f44f 6140 	mov.w	r1, #3072	; 0xc00
 80009b8:	f423 2380 	bic.w	r3, r3, #262144	; 0x40000
 80009bc:	61d3      	str	r3, [r2, #28]
 80009be:	f000 fcb7 	bl	8001330 <HAL_GPIO_DeInit>
 80009c2:	e8bd 4008 	ldmia.w	sp!, {r3, lr}
 80009c6:	2027      	movs	r0, #39	; 0x27
 80009c8:	f000 b970 	b.w	8000cac <HAL_NVIC_DisableIRQ>
 80009cc:	bd08      	pop	{r3, pc}
 80009ce:	bf00      	nop
 80009d0:	40004800 	.word	0x40004800
 80009d4:	40021000 	.word	0x40021000
 80009d8:	40010c00 	.word	0x40010c00

080009dc <NMI_Handler>:
 80009dc:	4770      	bx	lr
	...

080009e0 <HardFault_Handler>:
 80009e0:	b508      	push	{r3, lr}
 80009e2:	4c04      	ldr	r4, [pc, #16]	; (80009f4 <HardFault_Handler+0x14>)
 80009e4:	2200      	movs	r2, #0
 80009e6:	f44f 5100 	mov.w	r1, #8192	; 0x2000
 80009ea:	4620      	mov	r0, r4
 80009ec:	f000 fd14 	bl	8001418 <HAL_GPIO_WritePin>
 80009f0:	e7f8      	b.n	80009e4 <HardFault_Handler+0x4>
 80009f2:	bf00      	nop
 80009f4:	40011000 	.word	0x40011000

080009f8 <MemManage_Handler>:
 80009f8:	e7fe      	b.n	80009f8 <MemManage_Handler>

080009fa <BusFault_Handler>:
 80009fa:	e7fe      	b.n	80009fa <BusFault_Handler>

080009fc <UsageFault_Handler>:
 80009fc:	e7fe      	b.n	80009fc <UsageFault_Handler>

080009fe <SVC_Handler>:
 80009fe:	4770      	bx	lr

08000a00 <DebugMon_Handler>:
 8000a00:	4770      	bx	lr

08000a02 <PendSV_Handler>:
 8000a02:	4770      	bx	lr

08000a04 <SysTick_Handler>:
 8000a04:	f000 b8da 	b.w	8000bbc <HAL_IncTick>

08000a08 <DMA1_Channel2_IRQHandler>:
 8000a08:	4801      	ldr	r0, [pc, #4]	; (8000a10 <DMA1_Channel2_IRQHandler+0x8>)
 8000a0a:	f000 b9d3 	b.w	8000db4 <HAL_DMA_IRQHandler>
 8000a0e:	bf00      	nop
 8000a10:	20000040 	.word	0x20000040

08000a14 <USART3_IRQHandler>:
 8000a14:	b573      	push	{r0, r1, r4, r5, r6, lr}
 8000a16:	2332      	movs	r3, #50	; 0x32
 8000a18:	2201      	movs	r2, #1
 8000a1a:	f10d 0107 	add.w	r1, sp, #7
 8000a1e:	4829      	ldr	r0, [pc, #164]	; (8000ac4 <USART3_IRQHandler+0xb0>)
 8000a20:	f001 fae9 	bl	8001ff6 <HAL_UART_Receive>
 8000a24:	f89d 3007 	ldrb.w	r3, [sp, #7]
 8000a28:	4d27      	ldr	r5, [pc, #156]	; (8000ac8 <USART3_IRQHandler+0xb4>)
 8000a2a:	2b23      	cmp	r3, #35	; 0x23
 8000a2c:	4c27      	ldr	r4, [pc, #156]	; (8000acc <USART3_IRQHandler+0xb8>)
 8000a2e:	d002      	beq.n	8000a36 <USART3_IRQHandler+0x22>
 8000a30:	782a      	ldrb	r2, [r5, #0]
 8000a32:	2a01      	cmp	r2, #1
 8000a34:	d135      	bne.n	8000aa2 <USART3_IRQHandler+0x8e>
 8000a36:	2201      	movs	r2, #1
 8000a38:	4925      	ldr	r1, [pc, #148]	; (8000ad0 <USART3_IRQHandler+0xbc>)
 8000a3a:	702a      	strb	r2, [r5, #0]
 8000a3c:	8822      	ldrh	r2, [r4, #0]
 8000a3e:	2b21      	cmp	r3, #33	; 0x21
 8000a40:	548b      	strb	r3, [r1, r2]
 8000a42:	f102 0201 	add.w	r2, r2, #1
 8000a46:	8022      	strh	r2, [r4, #0]
 8000a48:	d02d      	beq.n	8000aa6 <USART3_IRQHandler+0x92>
 8000a4a:	4b22      	ldr	r3, [pc, #136]	; (8000ad4 <USART3_IRQHandler+0xc0>)
 8000a4c:	7818      	ldrb	r0, [r3, #0]
 8000a4e:	461e      	mov	r6, r3
 8000a50:	2801      	cmp	r0, #1
 8000a52:	d12e      	bne.n	8000ab2 <USART3_IRQHandler+0x9e>
 8000a54:	4a20      	ldr	r2, [pc, #128]	; (8000ad8 <USART3_IRQHandler+0xc4>)
 8000a56:	8821      	ldrh	r1, [r4, #0]
 8000a58:	7812      	ldrb	r2, [r2, #0]
 8000a5a:	2a02      	cmp	r2, #2
 8000a5c:	d116      	bne.n	8000a8c <USART3_IRQHandler+0x78>
 8000a5e:	f5b1 7f81 	cmp.w	r1, #258	; 0x102
 8000a62:	d113      	bne.n	8000a8c <USART3_IRQHandler+0x78>
 8000a64:	4a1a      	ldr	r2, [pc, #104]	; (8000ad0 <USART3_IRQHandler+0xbc>)
 8000a66:	7811      	ldrb	r1, [r2, #0]
 8000a68:	2923      	cmp	r1, #35	; 0x23
 8000a6a:	d128      	bne.n	8000abe <USART3_IRQHandler+0xaa>
 8000a6c:	f892 2101 	ldrb.w	r2, [r2, #257]	; 0x101
 8000a70:	2a21      	cmp	r2, #33	; 0x21
 8000a72:	d124      	bne.n	8000abe <USART3_IRQHandler+0xaa>
 8000a74:	4a13      	ldr	r2, [pc, #76]	; (8000ac4 <USART3_IRQHandler+0xb0>)
 8000a76:	6811      	ldr	r1, [r2, #0]
 8000a78:	68ca      	ldr	r2, [r1, #12]
 8000a7a:	f022 0220 	bic.w	r2, r2, #32
 8000a7e:	60ca      	str	r2, [r1, #12]
 8000a80:	4a16      	ldr	r2, [pc, #88]	; (8000adc <USART3_IRQHandler+0xc8>)
 8000a82:	7010      	strb	r0, [r2, #0]
 8000a84:	2200      	movs	r2, #0
 8000a86:	702a      	strb	r2, [r5, #0]
 8000a88:	701a      	strb	r2, [r3, #0]
 8000a8a:	e012      	b.n	8000ab2 <USART3_IRQHandler+0x9e>
 8000a8c:	4810      	ldr	r0, [pc, #64]	; (8000ad0 <USART3_IRQHandler+0xbc>)
 8000a8e:	f7ff fcf3 	bl	8000478 <messageHandler>
 8000a92:	2801      	cmp	r0, #1
 8000a94:	bf02      	ittt	eq
 8000a96:	2300      	moveq	r3, #0
 8000a98:	8023      	strheq	r3, [r4, #0]
 8000a9a:	702b      	strbeq	r3, [r5, #0]
 8000a9c:	2300      	movs	r3, #0
 8000a9e:	7033      	strb	r3, [r6, #0]
 8000aa0:	e007      	b.n	8000ab2 <USART3_IRQHandler+0x9e>
 8000aa2:	2b21      	cmp	r3, #33	; 0x21
 8000aa4:	d105      	bne.n	8000ab2 <USART3_IRQHandler+0x9e>
 8000aa6:	2201      	movs	r2, #1
 8000aa8:	4b0a      	ldr	r3, [pc, #40]	; (8000ad4 <USART3_IRQHandler+0xc0>)
 8000aaa:	701a      	strb	r2, [r3, #0]
 8000aac:	782b      	ldrb	r3, [r5, #0]
 8000aae:	4293      	cmp	r3, r2
 8000ab0:	d0cb      	beq.n	8000a4a <USART3_IRQHandler+0x36>
 8000ab2:	8823      	ldrh	r3, [r4, #0]
 8000ab4:	f5b3 7f81 	cmp.w	r3, #258	; 0x102
 8000ab8:	d901      	bls.n	8000abe <USART3_IRQHandler+0xaa>
 8000aba:	2300      	movs	r3, #0
 8000abc:	8023      	strh	r3, [r4, #0]
 8000abe:	b002      	add	sp, #8
 8000ac0:	bd70      	pop	{r4, r5, r6, pc}
 8000ac2:	bf00      	nop
 8000ac4:	20000084 	.word	0x20000084
 8000ac8:	20000031 	.word	0x20000031
 8000acc:	2000002e 	.word	0x2000002e
 8000ad0:	2000010c 	.word	0x2000010c
 8000ad4:	20000030 	.word	0x20000030
 8000ad8:	20000034 	.word	0x20000034
 8000adc:	2000002c 	.word	0x2000002c

08000ae0 <SystemInit>:
 8000ae0:	4770      	bx	lr
	...

08000ae4 <Reset_Handler>:
 8000ae4:	2100      	movs	r1, #0
 8000ae6:	e003      	b.n	8000af0 <LoopCopyDataInit>

08000ae8 <CopyDataInit>:
 8000ae8:	4b0b      	ldr	r3, [pc, #44]	; (8000b18 <LoopFillZerobss+0x14>)
 8000aea:	585b      	ldr	r3, [r3, r1]
 8000aec:	5043      	str	r3, [r0, r1]
 8000aee:	3104      	adds	r1, #4

08000af0 <LoopCopyDataInit>:
 8000af0:	480a      	ldr	r0, [pc, #40]	; (8000b1c <LoopFillZerobss+0x18>)
 8000af2:	4b0b      	ldr	r3, [pc, #44]	; (8000b20 <LoopFillZerobss+0x1c>)
 8000af4:	1842      	adds	r2, r0, r1
 8000af6:	429a      	cmp	r2, r3
 8000af8:	d3f6      	bcc.n	8000ae8 <CopyDataInit>
 8000afa:	4a0a      	ldr	r2, [pc, #40]	; (8000b24 <LoopFillZerobss+0x20>)
 8000afc:	e002      	b.n	8000b04 <LoopFillZerobss>

08000afe <FillZerobss>:
 8000afe:	2300      	movs	r3, #0
 8000b00:	f842 3b04 	str.w	r3, [r2], #4

08000b04 <LoopFillZerobss>:
 8000b04:	4b08      	ldr	r3, [pc, #32]	; (8000b28 <LoopFillZerobss+0x24>)
 8000b06:	429a      	cmp	r2, r3
 8000b08:	d3f9      	bcc.n	8000afe <FillZerobss>
 8000b0a:	f7ff ffe9 	bl	8000ae0 <SystemInit>
 8000b0e:	f001 facf 	bl	80020b0 <__libc_init_array>
 8000b12:	f7ff fd6f 	bl	80005f4 <main>
 8000b16:	4770      	bx	lr
 8000b18:	0800224c 	.word	0x0800224c
 8000b1c:	20000000 	.word	0x20000000
 8000b20:	2000000c 	.word	0x2000000c
 8000b24:	20000010 	.word	0x20000010
 8000b28:	20000238 	.word	0x20000238

08000b2c <ADC1_2_IRQHandler>:
 8000b2c:	e7fe      	b.n	8000b2c <ADC1_2_IRQHandler>

08000b2e <HAL_MspDeInit>:
 8000b2e:	4770      	bx	lr

08000b30 <HAL_DeInit>:
 8000b30:	b510      	push	{r4, lr}
 8000b32:	f04f 32ff 	mov.w	r2, #4294967295
 8000b36:	2400      	movs	r4, #0
 8000b38:	4b04      	ldr	r3, [pc, #16]	; (8000b4c <HAL_DeInit+0x1c>)
 8000b3a:	60da      	str	r2, [r3, #12]
 8000b3c:	611c      	str	r4, [r3, #16]
 8000b3e:	60da      	str	r2, [r3, #12]
 8000b40:	60dc      	str	r4, [r3, #12]
 8000b42:	f7ff fff4 	bl	8000b2e <HAL_MspDeInit>
 8000b46:	4620      	mov	r0, r4
 8000b48:	bd10      	pop	{r4, pc}
 8000b4a:	bf00      	nop
 8000b4c:	40021000 	.word	0x40021000

08000b50 <HAL_InitTick>:
 8000b50:	b538      	push	{r3, r4, r5, lr}
 8000b52:	4b0e      	ldr	r3, [pc, #56]	; (8000b8c <HAL_InitTick+0x3c>)
 8000b54:	4605      	mov	r5, r0
 8000b56:	7818      	ldrb	r0, [r3, #0]
 8000b58:	f44f 737a 	mov.w	r3, #1000	; 0x3e8
 8000b5c:	fbb3 f3f0 	udiv	r3, r3, r0
 8000b60:	4a0b      	ldr	r2, [pc, #44]	; (8000b90 <HAL_InitTick+0x40>)
 8000b62:	6810      	ldr	r0, [r2, #0]
 8000b64:	fbb0 f0f3 	udiv	r0, r0, r3
 8000b68:	f000 f8b4 	bl	8000cd4 <HAL_SYSTICK_Config>
 8000b6c:	4604      	mov	r4, r0
 8000b6e:	b958      	cbnz	r0, 8000b88 <HAL_InitTick+0x38>
 8000b70:	2d0f      	cmp	r5, #15
 8000b72:	d809      	bhi.n	8000b88 <HAL_InitTick+0x38>
 8000b74:	4602      	mov	r2, r0
 8000b76:	4629      	mov	r1, r5
 8000b78:	f04f 30ff 	mov.w	r0, #4294967295
 8000b7c:	f000 f854 	bl	8000c28 <HAL_NVIC_SetPriority>
 8000b80:	4620      	mov	r0, r4
 8000b82:	4b04      	ldr	r3, [pc, #16]	; (8000b94 <HAL_InitTick+0x44>)
 8000b84:	601d      	str	r5, [r3, #0]
 8000b86:	bd38      	pop	{r3, r4, r5, pc}
 8000b88:	2001      	movs	r0, #1
 8000b8a:	e7fc      	b.n	8000b86 <HAL_InitTick+0x36>
 8000b8c:	20000004 	.word	0x20000004
 8000b90:	20000000 	.word	0x20000000
 8000b94:	20000008 	.word	0x20000008

08000b98 <HAL_Init>:
 8000b98:	4a07      	ldr	r2, [pc, #28]	; (8000bb8 <HAL_Init+0x20>)
 8000b9a:	b508      	push	{r3, lr}
 8000b9c:	6813      	ldr	r3, [r2, #0]
 8000b9e:	2003      	movs	r0, #3
 8000ba0:	f043 0310 	orr.w	r3, r3, #16
 8000ba4:	6013      	str	r3, [r2, #0]
 8000ba6:	f000 f82d 	bl	8000c04 <HAL_NVIC_SetPriorityGrouping>
 8000baa:	2000      	movs	r0, #0
 8000bac:	f7ff ffd0 	bl	8000b50 <HAL_InitTick>
 8000bb0:	f7ff fe24 	bl	80007fc <HAL_MspInit>
 8000bb4:	2000      	movs	r0, #0
 8000bb6:	bd08      	pop	{r3, pc}
 8000bb8:	40022000 	.word	0x40022000

08000bbc <HAL_IncTick>:
 8000bbc:	4a03      	ldr	r2, [pc, #12]	; (8000bcc <HAL_IncTick+0x10>)
 8000bbe:	4b04      	ldr	r3, [pc, #16]	; (8000bd0 <HAL_IncTick+0x14>)
 8000bc0:	6811      	ldr	r1, [r2, #0]
 8000bc2:	781b      	ldrb	r3, [r3, #0]
 8000bc4:	440b      	add	r3, r1
 8000bc6:	6013      	str	r3, [r2, #0]
 8000bc8:	4770      	bx	lr
 8000bca:	bf00      	nop
 8000bcc:	20000210 	.word	0x20000210
 8000bd0:	20000004 	.word	0x20000004

08000bd4 <HAL_GetTick>:
 8000bd4:	4b01      	ldr	r3, [pc, #4]	; (8000bdc <HAL_GetTick+0x8>)
 8000bd6:	6818      	ldr	r0, [r3, #0]
 8000bd8:	4770      	bx	lr
 8000bda:	bf00      	nop
 8000bdc:	20000210 	.word	0x20000210

08000be0 <HAL_Delay>:
 8000be0:	b538      	push	{r3, r4, r5, lr}
 8000be2:	4604      	mov	r4, r0
 8000be4:	f7ff fff6 	bl	8000bd4 <HAL_GetTick>
 8000be8:	4605      	mov	r5, r0
 8000bea:	1c63      	adds	r3, r4, #1
 8000bec:	bf1e      	ittt	ne
 8000bee:	4b04      	ldrne	r3, [pc, #16]	; (8000c00 <HAL_Delay+0x20>)
 8000bf0:	781b      	ldrbne	r3, [r3, #0]
 8000bf2:	18e4      	addne	r4, r4, r3
 8000bf4:	f7ff ffee 	bl	8000bd4 <HAL_GetTick>
 8000bf8:	1b40      	subs	r0, r0, r5
 8000bfa:	42a0      	cmp	r0, r4
 8000bfc:	d3fa      	bcc.n	8000bf4 <HAL_Delay+0x14>
 8000bfe:	bd38      	pop	{r3, r4, r5, pc}
 8000c00:	20000004 	.word	0x20000004

08000c04 <HAL_NVIC_SetPriorityGrouping>:
 8000c04:	4a07      	ldr	r2, [pc, #28]	; (8000c24 <HAL_NVIC_SetPriorityGrouping+0x20>)
 8000c06:	0200      	lsls	r0, r0, #8
 8000c08:	68d3      	ldr	r3, [r2, #12]
 8000c0a:	f400 60e0 	and.w	r0, r0, #1792	; 0x700
 8000c0e:	f423 63e0 	bic.w	r3, r3, #1792	; 0x700
 8000c12:	041b      	lsls	r3, r3, #16
 8000c14:	0c1b      	lsrs	r3, r3, #16
 8000c16:	f043 63bf 	orr.w	r3, r3, #100139008	; 0x5f80000
 8000c1a:	f443 3300 	orr.w	r3, r3, #131072	; 0x20000
 8000c1e:	4303      	orrs	r3, r0
 8000c20:	60d3      	str	r3, [r2, #12]
 8000c22:	4770      	bx	lr
 8000c24:	e000ed00 	.word	0xe000ed00

08000c28 <HAL_NVIC_SetPriority>:
 8000c28:	4b17      	ldr	r3, [pc, #92]	; (8000c88 <HAL_NVIC_SetPriority+0x60>)
 8000c2a:	b570      	push	{r4, r5, r6, lr}
 8000c2c:	68dc      	ldr	r4, [r3, #12]
 8000c2e:	f04f 36ff 	mov.w	r6, #4294967295
 8000c32:	f3c4 2402 	ubfx	r4, r4, #8, #3
 8000c36:	f1c4 0507 	rsb	r5, r4, #7
 8000c3a:	2d04      	cmp	r5, #4
 8000c3c:	f104 0304 	add.w	r3, r4, #4
 8000c40:	bf28      	it	cs
 8000c42:	2504      	movcs	r5, #4
 8000c44:	2b06      	cmp	r3, #6
 8000c46:	bf98      	it	ls
 8000c48:	2400      	movls	r4, #0
 8000c4a:	fa06 f305 	lsl.w	r3, r6, r5
 8000c4e:	bf88      	it	hi
 8000c50:	3c03      	subhi	r4, #3
 8000c52:	ea21 0303 	bic.w	r3, r1, r3
 8000c56:	40a3      	lsls	r3, r4
 8000c58:	fa06 f404 	lsl.w	r4, r6, r4
 8000c5c:	ea22 0404 	bic.w	r4, r2, r4
 8000c60:	2800      	cmp	r0, #0
 8000c62:	ea43 0304 	orr.w	r3, r3, r4
 8000c66:	bfa8      	it	ge
 8000c68:	f100 4060 	addge.w	r0, r0, #3758096384	; 0xe0000000
 8000c6c:	ea4f 1303 	mov.w	r3, r3, lsl #4
 8000c70:	bfb8      	it	lt
 8000c72:	4a06      	ldrlt	r2, [pc, #24]	; (8000c8c <HAL_NVIC_SetPriority+0x64>)
 8000c74:	b2db      	uxtb	r3, r3
 8000c76:	bfab      	itete	ge
 8000c78:	f500 4061 	addge.w	r0, r0, #57600	; 0xe100
 8000c7c:	f000 000f 	andlt.w	r0, r0, #15
 8000c80:	f880 3300 	strbge.w	r3, [r0, #768]	; 0x300
 8000c84:	5413      	strblt	r3, [r2, r0]
 8000c86:	bd70      	pop	{r4, r5, r6, pc}
 8000c88:	e000ed00 	.word	0xe000ed00
 8000c8c:	e000ed14 	.word	0xe000ed14

08000c90 <HAL_NVIC_EnableIRQ>:
 8000c90:	2800      	cmp	r0, #0
 8000c92:	db08      	blt.n	8000ca6 <HAL_NVIC_EnableIRQ+0x16>
 8000c94:	2301      	movs	r3, #1
 8000c96:	0942      	lsrs	r2, r0, #5
 8000c98:	f000 001f 	and.w	r0, r0, #31
 8000c9c:	fa03 f000 	lsl.w	r0, r3, r0
 8000ca0:	4b01      	ldr	r3, [pc, #4]	; (8000ca8 <HAL_NVIC_EnableIRQ+0x18>)
 8000ca2:	f843 0022 	str.w	r0, [r3, r2, lsl #2]
 8000ca6:	4770      	bx	lr
 8000ca8:	e000e100 	.word	0xe000e100

08000cac <HAL_NVIC_DisableIRQ>:
 8000cac:	2800      	cmp	r0, #0
 8000cae:	db0d      	blt.n	8000ccc <HAL_NVIC_DisableIRQ+0x20>
 8000cb0:	2201      	movs	r2, #1
 8000cb2:	0943      	lsrs	r3, r0, #5
 8000cb4:	f000 001f 	and.w	r0, r0, #31
 8000cb8:	fa02 f000 	lsl.w	r0, r2, r0
 8000cbc:	4a04      	ldr	r2, [pc, #16]	; (8000cd0 <HAL_NVIC_DisableIRQ+0x24>)
 8000cbe:	3320      	adds	r3, #32
 8000cc0:	f842 0023 	str.w	r0, [r2, r3, lsl #2]
 8000cc4:	f3bf 8f4f 	dsb	sy
 8000cc8:	f3bf 8f6f 	isb	sy
 8000ccc:	4770      	bx	lr
 8000cce:	bf00      	nop
 8000cd0:	e000e100 	.word	0xe000e100

08000cd4 <HAL_SYSTICK_Config>:
 8000cd4:	3801      	subs	r0, #1
 8000cd6:	f1b0 7f80 	cmp.w	r0, #16777216	; 0x1000000
 8000cda:	d20a      	bcs.n	8000cf2 <HAL_SYSTICK_Config+0x1e>
 8000cdc:	21f0      	movs	r1, #240	; 0xf0
 8000cde:	4b06      	ldr	r3, [pc, #24]	; (8000cf8 <HAL_SYSTICK_Config+0x24>)
 8000ce0:	4a06      	ldr	r2, [pc, #24]	; (8000cfc <HAL_SYSTICK_Config+0x28>)
 8000ce2:	6058      	str	r0, [r3, #4]
 8000ce4:	f882 1023 	strb.w	r1, [r2, #35]	; 0x23
 8000ce8:	2000      	movs	r0, #0
 8000cea:	2207      	movs	r2, #7
 8000cec:	6098      	str	r0, [r3, #8]
 8000cee:	601a      	str	r2, [r3, #0]
 8000cf0:	4770      	bx	lr
 8000cf2:	2001      	movs	r0, #1
 8000cf4:	4770      	bx	lr
 8000cf6:	bf00      	nop
 8000cf8:	e000e010 	.word	0xe000e010
 8000cfc:	e000ed00 	.word	0xe000ed00

08000d00 <HAL_DMA_Init>:
 8000d00:	b510      	push	{r4, lr}
 8000d02:	b330      	cbz	r0, 8000d52 <HAL_DMA_Init+0x52>
 8000d04:	2214      	movs	r2, #20
 8000d06:	6801      	ldr	r1, [r0, #0]
 8000d08:	4b13      	ldr	r3, [pc, #76]	; (8000d58 <HAL_DMA_Init+0x58>)
 8000d0a:	440b      	add	r3, r1
 8000d0c:	fbb3 f3f2 	udiv	r3, r3, r2
 8000d10:	009b      	lsls	r3, r3, #2
 8000d12:	6403      	str	r3, [r0, #64]	; 0x40
 8000d14:	4b11      	ldr	r3, [pc, #68]	; (8000d5c <HAL_DMA_Init+0x5c>)
 8000d16:	680a      	ldr	r2, [r1, #0]
 8000d18:	63c3      	str	r3, [r0, #60]	; 0x3c
 8000d1a:	e9d0 3401 	ldrd	r3, r4, [r0, #4]
 8000d1e:	4323      	orrs	r3, r4
 8000d20:	68c4      	ldr	r4, [r0, #12]
 8000d22:	f422 527f 	bic.w	r2, r2, #16320	; 0x3fc0
 8000d26:	4323      	orrs	r3, r4
 8000d28:	6904      	ldr	r4, [r0, #16]
 8000d2a:	f022 0230 	bic.w	r2, r2, #48	; 0x30
 8000d2e:	4323      	orrs	r3, r4
 8000d30:	6944      	ldr	r4, [r0, #20]
 8000d32:	4323      	orrs	r3, r4
 8000d34:	6984      	ldr	r4, [r0, #24]
 8000d36:	4323      	orrs	r3, r4
 8000d38:	69c4      	ldr	r4, [r0, #28]
 8000d3a:	4323      	orrs	r3, r4
 8000d3c:	4313      	orrs	r3, r2
 8000d3e:	600b      	str	r3, [r1, #0]
 8000d40:	2201      	movs	r2, #1
 8000d42:	2300      	movs	r3, #0
 8000d44:	f880 2021 	strb.w	r2, [r0, #33]	; 0x21
 8000d48:	6383      	str	r3, [r0, #56]	; 0x38
 8000d4a:	f880 3020 	strb.w	r3, [r0, #32]
 8000d4e:	4618      	mov	r0, r3
 8000d50:	bd10      	pop	{r4, pc}
 8000d52:	2001      	movs	r0, #1
 8000d54:	e7fc      	b.n	8000d50 <HAL_DMA_Init+0x50>
 8000d56:	bf00      	nop
 8000d58:	bffdfff8 	.word	0xbffdfff8
 8000d5c:	40020000 	.word	0x40020000

08000d60 <HAL_DMA_DeInit>:
 8000d60:	b510      	push	{r4, lr}
 8000d62:	b308      	cbz	r0, 8000da8 <HAL_DMA_DeInit+0x48>
 8000d64:	6801      	ldr	r1, [r0, #0]
 8000d66:	4a11      	ldr	r2, [pc, #68]	; (8000dac <HAL_DMA_DeInit+0x4c>)
 8000d68:	680b      	ldr	r3, [r1, #0]
 8000d6a:	440a      	add	r2, r1
 8000d6c:	f023 0301 	bic.w	r3, r3, #1
 8000d70:	600b      	str	r3, [r1, #0]
 8000d72:	2300      	movs	r3, #0
 8000d74:	600b      	str	r3, [r1, #0]
 8000d76:	604b      	str	r3, [r1, #4]
 8000d78:	608b      	str	r3, [r1, #8]
 8000d7a:	60cb      	str	r3, [r1, #12]
 8000d7c:	2114      	movs	r1, #20
 8000d7e:	fbb2 f2f1 	udiv	r2, r2, r1
 8000d82:	2101      	movs	r1, #1
 8000d84:	0092      	lsls	r2, r2, #2
 8000d86:	4c0a      	ldr	r4, [pc, #40]	; (8000db0 <HAL_DMA_DeInit+0x50>)
 8000d88:	6402      	str	r2, [r0, #64]	; 0x40
 8000d8a:	fa01 f202 	lsl.w	r2, r1, r2
 8000d8e:	63c4      	str	r4, [r0, #60]	; 0x3c
 8000d90:	6062      	str	r2, [r4, #4]
 8000d92:	e9c0 330a 	strd	r3, r3, [r0, #40]	; 0x28
 8000d96:	e9c0 330c 	strd	r3, r3, [r0, #48]	; 0x30
 8000d9a:	6383      	str	r3, [r0, #56]	; 0x38
 8000d9c:	f880 3021 	strb.w	r3, [r0, #33]	; 0x21
 8000da0:	f880 3020 	strb.w	r3, [r0, #32]
 8000da4:	4618      	mov	r0, r3
 8000da6:	bd10      	pop	{r4, pc}
 8000da8:	2001      	movs	r0, #1
 8000daa:	e7fc      	b.n	8000da6 <HAL_DMA_DeInit+0x46>
 8000dac:	bffdfff8 	.word	0xbffdfff8
 8000db0:	40020000 	.word	0x40020000

08000db4 <HAL_DMA_IRQHandler>:
 8000db4:	b470      	push	{r4, r5, r6}
 8000db6:	2504      	movs	r5, #4
 8000db8:	6bc6      	ldr	r6, [r0, #60]	; 0x3c
 8000dba:	6c02      	ldr	r2, [r0, #64]	; 0x40
 8000dbc:	6834      	ldr	r4, [r6, #0]
 8000dbe:	6803      	ldr	r3, [r0, #0]
 8000dc0:	4095      	lsls	r5, r2
 8000dc2:	4225      	tst	r5, r4
 8000dc4:	6819      	ldr	r1, [r3, #0]
 8000dc6:	d032      	beq.n	8000e2e <HAL_DMA_IRQHandler+0x7a>
 8000dc8:	074d      	lsls	r5, r1, #29
 8000dca:	d530      	bpl.n	8000e2e <HAL_DMA_IRQHandler+0x7a>
 8000dcc:	681a      	ldr	r2, [r3, #0]
 8000dce:	0696      	lsls	r6, r2, #26
 8000dd0:	bf5e      	ittt	pl
 8000dd2:	681a      	ldrpl	r2, [r3, #0]
 8000dd4:	f022 0204 	bicpl.w	r2, r2, #4
 8000dd8:	601a      	strpl	r2, [r3, #0]
 8000dda:	4a3e      	ldr	r2, [pc, #248]	; (8000ed4 <HAL_DMA_IRQHandler+0x120>)
 8000ddc:	4293      	cmp	r3, r2
 8000dde:	d019      	beq.n	8000e14 <HAL_DMA_IRQHandler+0x60>
 8000de0:	3214      	adds	r2, #20
 8000de2:	4293      	cmp	r3, r2
 8000de4:	d018      	beq.n	8000e18 <HAL_DMA_IRQHandler+0x64>
 8000de6:	3214      	adds	r2, #20
 8000de8:	4293      	cmp	r3, r2
 8000dea:	d017      	beq.n	8000e1c <HAL_DMA_IRQHandler+0x68>
 8000dec:	3214      	adds	r2, #20
 8000dee:	4293      	cmp	r3, r2
 8000df0:	d017      	beq.n	8000e22 <HAL_DMA_IRQHandler+0x6e>
 8000df2:	3214      	adds	r2, #20
 8000df4:	4293      	cmp	r3, r2
 8000df6:	d017      	beq.n	8000e28 <HAL_DMA_IRQHandler+0x74>
 8000df8:	3214      	adds	r2, #20
 8000dfa:	4293      	cmp	r3, r2
 8000dfc:	bf0c      	ite	eq
 8000dfe:	f44f 0380 	moveq.w	r3, #4194304	; 0x400000
 8000e02:	f04f 6380 	movne.w	r3, #67108864	; 0x4000000
 8000e06:	4a34      	ldr	r2, [pc, #208]	; (8000ed8 <HAL_DMA_IRQHandler+0x124>)
 8000e08:	6053      	str	r3, [r2, #4]
 8000e0a:	6ac3      	ldr	r3, [r0, #44]	; 0x2c
 8000e0c:	2b00      	cmp	r3, #0
 8000e0e:	d05e      	beq.n	8000ece <HAL_DMA_IRQHandler+0x11a>
 8000e10:	bc70      	pop	{r4, r5, r6}
 8000e12:	4718      	bx	r3
 8000e14:	2304      	movs	r3, #4
 8000e16:	e7f6      	b.n	8000e06 <HAL_DMA_IRQHandler+0x52>
 8000e18:	2340      	movs	r3, #64	; 0x40
 8000e1a:	e7f4      	b.n	8000e06 <HAL_DMA_IRQHandler+0x52>
 8000e1c:	f44f 6380 	mov.w	r3, #1024	; 0x400
 8000e20:	e7f1      	b.n	8000e06 <HAL_DMA_IRQHandler+0x52>
 8000e22:	f44f 4380 	mov.w	r3, #16384	; 0x4000
 8000e26:	e7ee      	b.n	8000e06 <HAL_DMA_IRQHandler+0x52>
 8000e28:	f44f 2380 	mov.w	r3, #262144	; 0x40000
 8000e2c:	e7eb      	b.n	8000e06 <HAL_DMA_IRQHandler+0x52>
 8000e2e:	2502      	movs	r5, #2
 8000e30:	4095      	lsls	r5, r2
 8000e32:	4225      	tst	r5, r4
 8000e34:	d035      	beq.n	8000ea2 <HAL_DMA_IRQHandler+0xee>
 8000e36:	078d      	lsls	r5, r1, #30
 8000e38:	d533      	bpl.n	8000ea2 <HAL_DMA_IRQHandler+0xee>
 8000e3a:	681a      	ldr	r2, [r3, #0]
 8000e3c:	0694      	lsls	r4, r2, #26
 8000e3e:	d406      	bmi.n	8000e4e <HAL_DMA_IRQHandler+0x9a>
 8000e40:	681a      	ldr	r2, [r3, #0]
 8000e42:	f022 020a 	bic.w	r2, r2, #10
 8000e46:	601a      	str	r2, [r3, #0]
 8000e48:	2201      	movs	r2, #1
 8000e4a:	f880 2021 	strb.w	r2, [r0, #33]	; 0x21
 8000e4e:	4a21      	ldr	r2, [pc, #132]	; (8000ed4 <HAL_DMA_IRQHandler+0x120>)
 8000e50:	4293      	cmp	r3, r2
 8000e52:	d019      	beq.n	8000e88 <HAL_DMA_IRQHandler+0xd4>
 8000e54:	3214      	adds	r2, #20
 8000e56:	4293      	cmp	r3, r2
 8000e58:	d018      	beq.n	8000e8c <HAL_DMA_IRQHandler+0xd8>
 8000e5a:	3214      	adds	r2, #20
 8000e5c:	4293      	cmp	r3, r2
 8000e5e:	d017      	beq.n	8000e90 <HAL_DMA_IRQHandler+0xdc>
 8000e60:	3214      	adds	r2, #20
 8000e62:	4293      	cmp	r3, r2
 8000e64:	d017      	beq.n	8000e96 <HAL_DMA_IRQHandler+0xe2>
 8000e66:	3214      	adds	r2, #20
 8000e68:	4293      	cmp	r3, r2
 8000e6a:	d017      	beq.n	8000e9c <HAL_DMA_IRQHandler+0xe8>
 8000e6c:	3214      	adds	r2, #20
 8000e6e:	4293      	cmp	r3, r2
 8000e70:	bf0c      	ite	eq
 8000e72:	f44f 1300 	moveq.w	r3, #2097152	; 0x200000
 8000e76:	f04f 7300 	movne.w	r3, #33554432	; 0x2000000
 8000e7a:	4a17      	ldr	r2, [pc, #92]	; (8000ed8 <HAL_DMA_IRQHandler+0x124>)
 8000e7c:	6053      	str	r3, [r2, #4]
 8000e7e:	2300      	movs	r3, #0
 8000e80:	f880 3020 	strb.w	r3, [r0, #32]
 8000e84:	6a83      	ldr	r3, [r0, #40]	; 0x28
 8000e86:	e7c1      	b.n	8000e0c <HAL_DMA_IRQHandler+0x58>
 8000e88:	2302      	movs	r3, #2
 8000e8a:	e7f6      	b.n	8000e7a <HAL_DMA_IRQHandler+0xc6>
 8000e8c:	2320      	movs	r3, #32
 8000e8e:	e7f4      	b.n	8000e7a <HAL_DMA_IRQHandler+0xc6>
 8000e90:	f44f 7300 	mov.w	r3, #512	; 0x200
 8000e94:	e7f1      	b.n	8000e7a <HAL_DMA_IRQHandler+0xc6>
 8000e96:	f44f 5300 	mov.w	r3, #8192	; 0x2000
 8000e9a:	e7ee      	b.n	8000e7a <HAL_DMA_IRQHandler+0xc6>
 8000e9c:	f44f 3300 	mov.w	r3, #131072	; 0x20000
 8000ea0:	e7eb      	b.n	8000e7a <HAL_DMA_IRQHandler+0xc6>
 8000ea2:	2508      	movs	r5, #8
 8000ea4:	4095      	lsls	r5, r2
 8000ea6:	4225      	tst	r5, r4
 8000ea8:	d011      	beq.n	8000ece <HAL_DMA_IRQHandler+0x11a>
 8000eaa:	0709      	lsls	r1, r1, #28
 8000eac:	d50f      	bpl.n	8000ece <HAL_DMA_IRQHandler+0x11a>
 8000eae:	6819      	ldr	r1, [r3, #0]
 8000eb0:	f021 010e 	bic.w	r1, r1, #14
 8000eb4:	6019      	str	r1, [r3, #0]
 8000eb6:	2301      	movs	r3, #1
 8000eb8:	fa03 f202 	lsl.w	r2, r3, r2
 8000ebc:	6072      	str	r2, [r6, #4]
 8000ebe:	6383      	str	r3, [r0, #56]	; 0x38
 8000ec0:	f880 3021 	strb.w	r3, [r0, #33]	; 0x21
 8000ec4:	2300      	movs	r3, #0
 8000ec6:	f880 3020 	strb.w	r3, [r0, #32]
 8000eca:	6b03      	ldr	r3, [r0, #48]	; 0x30
 8000ecc:	e79e      	b.n	8000e0c <HAL_DMA_IRQHandler+0x58>
 8000ece:	bc70      	pop	{r4, r5, r6}
 8000ed0:	4770      	bx	lr
 8000ed2:	bf00      	nop
 8000ed4:	40020008 	.word	0x40020008
 8000ed8:	40020000 	.word	0x40020000

08000edc <FLASH_SetErrorCode>:
 8000edc:	4a11      	ldr	r2, [pc, #68]	; (8000f24 <FLASH_SetErrorCode+0x48>)
 8000ede:	68d3      	ldr	r3, [r2, #12]
 8000ee0:	f013 0310 	ands.w	r3, r3, #16
 8000ee4:	d005      	beq.n	8000ef2 <FLASH_SetErrorCode+0x16>
 8000ee6:	4910      	ldr	r1, [pc, #64]	; (8000f28 <FLASH_SetErrorCode+0x4c>)
 8000ee8:	69cb      	ldr	r3, [r1, #28]
 8000eea:	f043 0302 	orr.w	r3, r3, #2
 8000eee:	61cb      	str	r3, [r1, #28]
 8000ef0:	2310      	movs	r3, #16
 8000ef2:	68d2      	ldr	r2, [r2, #12]
 8000ef4:	0750      	lsls	r0, r2, #29
 8000ef6:	d506      	bpl.n	8000f06 <FLASH_SetErrorCode+0x2a>
 8000ef8:	490b      	ldr	r1, [pc, #44]	; (8000f28 <FLASH_SetErrorCode+0x4c>)
 8000efa:	f043 0304 	orr.w	r3, r3, #4
 8000efe:	69ca      	ldr	r2, [r1, #28]
 8000f00:	f042 0201 	orr.w	r2, r2, #1
 8000f04:	61ca      	str	r2, [r1, #28]
 8000f06:	4a07      	ldr	r2, [pc, #28]	; (8000f24 <FLASH_SetErrorCode+0x48>)
 8000f08:	69d1      	ldr	r1, [r2, #28]
 8000f0a:	07c9      	lsls	r1, r1, #31
 8000f0c:	d508      	bpl.n	8000f20 <FLASH_SetErrorCode+0x44>
 8000f0e:	4806      	ldr	r0, [pc, #24]	; (8000f28 <FLASH_SetErrorCode+0x4c>)
 8000f10:	69c1      	ldr	r1, [r0, #28]
 8000f12:	f041 0104 	orr.w	r1, r1, #4
 8000f16:	61c1      	str	r1, [r0, #28]
 8000f18:	69d1      	ldr	r1, [r2, #28]
 8000f1a:	f021 0101 	bic.w	r1, r1, #1
 8000f1e:	61d1      	str	r1, [r2, #28]
 8000f20:	60d3      	str	r3, [r2, #12]
 8000f22:	4770      	bx	lr
 8000f24:	40022000 	.word	0x40022000
 8000f28:	20000218 	.word	0x20000218

08000f2c <HAL_FLASH_Unlock>:
 8000f2c:	4b06      	ldr	r3, [pc, #24]	; (8000f48 <HAL_FLASH_Unlock+0x1c>)
 8000f2e:	6918      	ldr	r0, [r3, #16]
 8000f30:	f010 0080 	ands.w	r0, r0, #128	; 0x80
 8000f34:	d007      	beq.n	8000f46 <HAL_FLASH_Unlock+0x1a>
 8000f36:	4a05      	ldr	r2, [pc, #20]	; (8000f4c <HAL_FLASH_Unlock+0x20>)
 8000f38:	605a      	str	r2, [r3, #4]
 8000f3a:	f102 3288 	add.w	r2, r2, #2290649224	; 0x88888888
 8000f3e:	605a      	str	r2, [r3, #4]
 8000f40:	6918      	ldr	r0, [r3, #16]
 8000f42:	f3c0 10c0 	ubfx	r0, r0, #7, #1
 8000f46:	4770      	bx	lr
 8000f48:	40022000 	.word	0x40022000
 8000f4c:	45670123 	.word	0x45670123

08000f50 <HAL_FLASH_Lock>:
 8000f50:	4a03      	ldr	r2, [pc, #12]	; (8000f60 <HAL_FLASH_Lock+0x10>)
 8000f52:	2000      	movs	r0, #0
 8000f54:	6913      	ldr	r3, [r2, #16]
 8000f56:	f043 0380 	orr.w	r3, r3, #128	; 0x80
 8000f5a:	6113      	str	r3, [r2, #16]
 8000f5c:	4770      	bx	lr
 8000f5e:	bf00      	nop
 8000f60:	40022000 	.word	0x40022000

08000f64 <HAL_FLASH_OB_Unlock>:
 8000f64:	4b06      	ldr	r3, [pc, #24]	; (8000f80 <HAL_FLASH_OB_Unlock+0x1c>)
 8000f66:	6918      	ldr	r0, [r3, #16]
 8000f68:	f410 7000 	ands.w	r0, r0, #512	; 0x200
 8000f6c:	bf09      	itett	eq
 8000f6e:	4a05      	ldreq	r2, [pc, #20]	; (8000f84 <HAL_FLASH_OB_Unlock+0x20>)
 8000f70:	2001      	movne	r0, #1
 8000f72:	609a      	streq	r2, [r3, #8]
 8000f74:	f102 3288 	addeq.w	r2, r2, #2290649224	; 0x88888888
 8000f78:	bf08      	it	eq
 8000f7a:	609a      	streq	r2, [r3, #8]
 8000f7c:	4770      	bx	lr
 8000f7e:	bf00      	nop
 8000f80:	40022000 	.word	0x40022000
 8000f84:	45670123 	.word	0x45670123

08000f88 <HAL_FLASH_OB_Lock>:
 8000f88:	4a03      	ldr	r2, [pc, #12]	; (8000f98 <HAL_FLASH_OB_Lock+0x10>)
 8000f8a:	2000      	movs	r0, #0
 8000f8c:	6913      	ldr	r3, [r2, #16]
 8000f8e:	f423 7300 	bic.w	r3, r3, #512	; 0x200
 8000f92:	6113      	str	r3, [r2, #16]
 8000f94:	4770      	bx	lr
 8000f96:	bf00      	nop
 8000f98:	40022000 	.word	0x40022000

08000f9c <FLASH_WaitForLastOperation>:
 8000f9c:	b5f8      	push	{r3, r4, r5, r6, r7, lr}
 8000f9e:	4606      	mov	r6, r0
 8000fa0:	f7ff fe18 	bl	8000bd4 <HAL_GetTick>
 8000fa4:	4c11      	ldr	r4, [pc, #68]	; (8000fec <FLASH_WaitForLastOperation+0x50>)
 8000fa6:	4607      	mov	r7, r0
 8000fa8:	4625      	mov	r5, r4
 8000faa:	68e3      	ldr	r3, [r4, #12]
 8000fac:	07d8      	lsls	r0, r3, #31
 8000fae:	d412      	bmi.n	8000fd6 <FLASH_WaitForLastOperation+0x3a>
 8000fb0:	68e3      	ldr	r3, [r4, #12]
 8000fb2:	0699      	lsls	r1, r3, #26
 8000fb4:	bf44      	itt	mi
 8000fb6:	2320      	movmi	r3, #32
 8000fb8:	60e3      	strmi	r3, [r4, #12]
 8000fba:	68eb      	ldr	r3, [r5, #12]
 8000fbc:	06da      	lsls	r2, r3, #27
 8000fbe:	d406      	bmi.n	8000fce <FLASH_WaitForLastOperation+0x32>
 8000fc0:	69eb      	ldr	r3, [r5, #28]
 8000fc2:	07db      	lsls	r3, r3, #31
 8000fc4:	d403      	bmi.n	8000fce <FLASH_WaitForLastOperation+0x32>
 8000fc6:	68e8      	ldr	r0, [r5, #12]
 8000fc8:	f010 0004 	ands.w	r0, r0, #4
 8000fcc:	d007      	beq.n	8000fde <FLASH_WaitForLastOperation+0x42>
 8000fce:	f7ff ff85 	bl	8000edc <FLASH_SetErrorCode>
 8000fd2:	2001      	movs	r0, #1
 8000fd4:	e003      	b.n	8000fde <FLASH_WaitForLastOperation+0x42>
 8000fd6:	1c73      	adds	r3, r6, #1
 8000fd8:	d0e7      	beq.n	8000faa <FLASH_WaitForLastOperation+0xe>
 8000fda:	b90e      	cbnz	r6, 8000fe0 <FLASH_WaitForLastOperation+0x44>
 8000fdc:	2003      	movs	r0, #3
 8000fde:	bdf8      	pop	{r3, r4, r5, r6, r7, pc}
 8000fe0:	f7ff fdf8 	bl	8000bd4 <HAL_GetTick>
 8000fe4:	1bc0      	subs	r0, r0, r7
 8000fe6:	42b0      	cmp	r0, r6
 8000fe8:	d9df      	bls.n	8000faa <FLASH_WaitForLastOperation+0xe>
 8000fea:	e7f7      	b.n	8000fdc <FLASH_WaitForLastOperation+0x40>
 8000fec:	40022000 	.word	0x40022000

08000ff0 <HAL_FLASH_Program>:
 8000ff0:	e92d 4ff8 	stmdb	sp!, {r3, r4, r5, r6, r7, r8, r9, sl, fp, lr}
 8000ff4:	4c24      	ldr	r4, [pc, #144]	; (8001088 <HAL_FLASH_Program+0x98>)
 8000ff6:	461e      	mov	r6, r3
 8000ff8:	7e23      	ldrb	r3, [r4, #24]
 8000ffa:	4605      	mov	r5, r0
 8000ffc:	2b01      	cmp	r3, #1
 8000ffe:	460f      	mov	r7, r1
 8001000:	4690      	mov	r8, r2
 8001002:	d03f      	beq.n	8001084 <HAL_FLASH_Program+0x94>
 8001004:	2301      	movs	r3, #1
 8001006:	f24c 3050 	movw	r0, #50000	; 0xc350
 800100a:	7623      	strb	r3, [r4, #24]
 800100c:	f7ff ffc6 	bl	8000f9c <FLASH_WaitForLastOperation>
 8001010:	bba0      	cbnz	r0, 800107c <HAL_FLASH_Program+0x8c>
 8001012:	2d01      	cmp	r5, #1
 8001014:	d003      	beq.n	800101e <HAL_FLASH_Program+0x2e>
 8001016:	2d02      	cmp	r5, #2
 8001018:	bf0c      	ite	eq
 800101a:	2502      	moveq	r5, #2
 800101c:	2504      	movne	r5, #4
 800101e:	f04f 0900 	mov.w	r9, #0
 8001022:	46cb      	mov	fp, r9
 8001024:	f8df a064 	ldr.w	sl, [pc, #100]	; 800108c <HAL_FLASH_Program+0x9c>
 8001028:	ea4f 1309 	mov.w	r3, r9, lsl #4
 800102c:	f1c3 0120 	rsb	r1, r3, #32
 8001030:	f1a3 0220 	sub.w	r2, r3, #32
 8001034:	fa06 f101 	lsl.w	r1, r6, r1
 8001038:	fa28 f303 	lsr.w	r3, r8, r3
 800103c:	f8c4 b01c 	str.w	fp, [r4, #28]
 8001040:	430b      	orrs	r3, r1
 8001042:	fa26 f202 	lsr.w	r2, r6, r2
 8001046:	4313      	orrs	r3, r2
 8001048:	f8da 2010 	ldr.w	r2, [sl, #16]
 800104c:	b29b      	uxth	r3, r3
 800104e:	f042 0201 	orr.w	r2, r2, #1
 8001052:	f8ca 2010 	str.w	r2, [sl, #16]
 8001056:	f24c 3050 	movw	r0, #50000	; 0xc350
 800105a:	f827 3019 	strh.w	r3, [r7, r9, lsl #1]
 800105e:	f7ff ff9d 	bl	8000f9c <FLASH_WaitForLastOperation>
 8001062:	f8da 3010 	ldr.w	r3, [sl, #16]
 8001066:	f023 0301 	bic.w	r3, r3, #1
 800106a:	f8ca 3010 	str.w	r3, [sl, #16]
 800106e:	b928      	cbnz	r0, 800107c <HAL_FLASH_Program+0x8c>
 8001070:	f109 0901 	add.w	r9, r9, #1
 8001074:	fa5f f389 	uxtb.w	r3, r9
 8001078:	429d      	cmp	r5, r3
 800107a:	d8d5      	bhi.n	8001028 <HAL_FLASH_Program+0x38>
 800107c:	2300      	movs	r3, #0
 800107e:	7623      	strb	r3, [r4, #24]
 8001080:	e8bd 8ff8 	ldmia.w	sp!, {r3, r4, r5, r6, r7, r8, r9, sl, fp, pc}
 8001084:	2002      	movs	r0, #2
 8001086:	e7fb      	b.n	8001080 <HAL_FLASH_Program+0x90>
 8001088:	20000218 	.word	0x20000218
 800108c:	40022000 	.word	0x40022000

08001090 <FLASH_MassErase.isra.0>:
 8001090:	2200      	movs	r2, #0
 8001092:	4b06      	ldr	r3, [pc, #24]	; (80010ac <FLASH_MassErase.isra.0+0x1c>)
 8001094:	61da      	str	r2, [r3, #28]
 8001096:	4b06      	ldr	r3, [pc, #24]	; (80010b0 <FLASH_MassErase.isra.0+0x20>)
 8001098:	691a      	ldr	r2, [r3, #16]
 800109a:	f042 0204 	orr.w	r2, r2, #4
 800109e:	611a      	str	r2, [r3, #16]
 80010a0:	691a      	ldr	r2, [r3, #16]
 80010a2:	f042 0240 	orr.w	r2, r2, #64	; 0x40
 80010a6:	611a      	str	r2, [r3, #16]
 80010a8:	4770      	bx	lr
 80010aa:	bf00      	nop
 80010ac:	20000218 	.word	0x20000218
 80010b0:	40022000 	.word	0x40022000

080010b4 <FLASH_PageErase>:
 80010b4:	2200      	movs	r2, #0
 80010b6:	4b06      	ldr	r3, [pc, #24]	; (80010d0 <FLASH_PageErase+0x1c>)
 80010b8:	61da      	str	r2, [r3, #28]
 80010ba:	4b06      	ldr	r3, [pc, #24]	; (80010d4 <FLASH_PageErase+0x20>)
 80010bc:	691a      	ldr	r2, [r3, #16]
 80010be:	f042 0202 	orr.w	r2, r2, #2
 80010c2:	611a      	str	r2, [r3, #16]
 80010c4:	6158      	str	r0, [r3, #20]
 80010c6:	691a      	ldr	r2, [r3, #16]
 80010c8:	f042 0240 	orr.w	r2, r2, #64	; 0x40
 80010cc:	611a      	str	r2, [r3, #16]
 80010ce:	4770      	bx	lr
 80010d0:	20000218 	.word	0x20000218
 80010d4:	40022000 	.word	0x40022000

080010d8 <HAL_FLASHEx_Erase>:
 80010d8:	e92d 41f0 	stmdb	sp!, {r4, r5, r6, r7, r8, lr}
 80010dc:	4d22      	ldr	r5, [pc, #136]	; (8001168 <HAL_FLASHEx_Erase+0x90>)
 80010de:	4607      	mov	r7, r0
 80010e0:	7e2b      	ldrb	r3, [r5, #24]
 80010e2:	4688      	mov	r8, r1
 80010e4:	2b01      	cmp	r3, #1
 80010e6:	d03d      	beq.n	8001164 <HAL_FLASHEx_Erase+0x8c>
 80010e8:	2401      	movs	r4, #1
 80010ea:	6803      	ldr	r3, [r0, #0]
 80010ec:	762c      	strb	r4, [r5, #24]
 80010ee:	2b02      	cmp	r3, #2
 80010f0:	f24c 3050 	movw	r0, #50000	; 0xc350
 80010f4:	d113      	bne.n	800111e <HAL_FLASHEx_Erase+0x46>
 80010f6:	f7ff ff51 	bl	8000f9c <FLASH_WaitForLastOperation>
 80010fa:	b120      	cbz	r0, 8001106 <HAL_FLASHEx_Erase+0x2e>
 80010fc:	2001      	movs	r0, #1
 80010fe:	2300      	movs	r3, #0
 8001100:	762b      	strb	r3, [r5, #24]
 8001102:	e8bd 81f0 	ldmia.w	sp!, {r4, r5, r6, r7, r8, pc}
 8001106:	f7ff ffc3 	bl	8001090 <FLASH_MassErase.isra.0>
 800110a:	f24c 3050 	movw	r0, #50000	; 0xc350
 800110e:	f7ff ff45 	bl	8000f9c <FLASH_WaitForLastOperation>
 8001112:	4a16      	ldr	r2, [pc, #88]	; (800116c <HAL_FLASHEx_Erase+0x94>)
 8001114:	6913      	ldr	r3, [r2, #16]
 8001116:	f023 0304 	bic.w	r3, r3, #4
 800111a:	6113      	str	r3, [r2, #16]
 800111c:	e7ef      	b.n	80010fe <HAL_FLASHEx_Erase+0x26>
 800111e:	f7ff ff3d 	bl	8000f9c <FLASH_WaitForLastOperation>
 8001122:	2800      	cmp	r0, #0
 8001124:	d1ea      	bne.n	80010fc <HAL_FLASHEx_Erase+0x24>
 8001126:	f04f 33ff 	mov.w	r3, #4294967295
 800112a:	f8c8 3000 	str.w	r3, [r8]
 800112e:	4620      	mov	r0, r4
 8001130:	68be      	ldr	r6, [r7, #8]
 8001132:	4c0e      	ldr	r4, [pc, #56]	; (800116c <HAL_FLASHEx_Erase+0x94>)
 8001134:	e9d7 3202 	ldrd	r3, r2, [r7, #8]
 8001138:	eb03 2382 	add.w	r3, r3, r2, lsl #10
 800113c:	42b3      	cmp	r3, r6
 800113e:	d9de      	bls.n	80010fe <HAL_FLASHEx_Erase+0x26>
 8001140:	4630      	mov	r0, r6
 8001142:	f7ff ffb7 	bl	80010b4 <FLASH_PageErase>
 8001146:	f24c 3050 	movw	r0, #50000	; 0xc350
 800114a:	f7ff ff27 	bl	8000f9c <FLASH_WaitForLastOperation>
 800114e:	6923      	ldr	r3, [r4, #16]
 8001150:	f023 0302 	bic.w	r3, r3, #2
 8001154:	6123      	str	r3, [r4, #16]
 8001156:	b110      	cbz	r0, 800115e <HAL_FLASHEx_Erase+0x86>
 8001158:	f8c8 6000 	str.w	r6, [r8]
 800115c:	e7cf      	b.n	80010fe <HAL_FLASHEx_Erase+0x26>
 800115e:	f506 6680 	add.w	r6, r6, #1024	; 0x400
 8001162:	e7e7      	b.n	8001134 <HAL_FLASHEx_Erase+0x5c>
 8001164:	2002      	movs	r0, #2
 8001166:	e7cc      	b.n	8001102 <HAL_FLASHEx_Erase+0x2a>
 8001168:	20000218 	.word	0x20000218
 800116c:	40022000 	.word	0x40022000

08001170 <HAL_GPIO_Init>:
 8001170:	e92d 4ff7 	stmdb	sp!, {r0, r1, r2, r4, r5, r6, r7, r8, r9, sl, fp, lr}
 8001174:	2400      	movs	r4, #0
 8001176:	4626      	mov	r6, r4
 8001178:	4b65      	ldr	r3, [pc, #404]	; (8001310 <HAL_GPIO_Init+0x1a0>)
 800117a:	f8df c1a4 	ldr.w	ip, [pc, #420]	; 8001320 <HAL_GPIO_Init+0x1b0>
 800117e:	f8df e1a4 	ldr.w	lr, [pc, #420]	; 8001324 <HAL_GPIO_Init+0x1b4>
 8001182:	680a      	ldr	r2, [r1, #0]
 8001184:	fa32 f506 	lsrs.w	r5, r2, r6
 8001188:	d102      	bne.n	8001190 <HAL_GPIO_Init+0x20>
 800118a:	b003      	add	sp, #12
 800118c:	e8bd 8ff0 	ldmia.w	sp!, {r4, r5, r6, r7, r8, r9, sl, fp, pc}
 8001190:	f04f 0801 	mov.w	r8, #1
 8001194:	fa08 f806 	lsl.w	r8, r8, r6
 8001198:	ea02 0208 	and.w	r2, r2, r8
 800119c:	4590      	cmp	r8, r2
 800119e:	d17e      	bne.n	800129e <HAL_GPIO_Init+0x12e>
 80011a0:	684d      	ldr	r5, [r1, #4]
 80011a2:	2d12      	cmp	r5, #18
 80011a4:	f000 80a9 	beq.w	80012fa <HAL_GPIO_Init+0x18a>
 80011a8:	f200 8082 	bhi.w	80012b0 <HAL_GPIO_Init+0x140>
 80011ac:	2d02      	cmp	r5, #2
 80011ae:	f000 80a1 	beq.w	80012f4 <HAL_GPIO_Init+0x184>
 80011b2:	d876      	bhi.n	80012a2 <HAL_GPIO_Init+0x132>
 80011b4:	2d00      	cmp	r5, #0
 80011b6:	f000 8088 	beq.w	80012ca <HAL_GPIO_Init+0x15a>
 80011ba:	2d01      	cmp	r5, #1
 80011bc:	f000 8098 	beq.w	80012f0 <HAL_GPIO_Init+0x180>
 80011c0:	f04f 090f 	mov.w	r9, #15
 80011c4:	2aff      	cmp	r2, #255	; 0xff
 80011c6:	bf93      	iteet	ls
 80011c8:	4682      	movls	sl, r0
 80011ca:	f106 4580 	addhi.w	r5, r6, #1073741824	; 0x40000000
 80011ce:	3d08      	subhi	r5, #8
 80011d0:	f8d0 b000 	ldrls.w	fp, [r0]
 80011d4:	bf92      	itee	ls
 80011d6:	00b5      	lslls	r5, r6, #2
 80011d8:	f8d0 b004 	ldrhi.w	fp, [r0, #4]
 80011dc:	00ad      	lslhi	r5, r5, #2
 80011de:	fa09 f805 	lsl.w	r8, r9, r5
 80011e2:	ea2b 0808 	bic.w	r8, fp, r8
 80011e6:	fa04 f505 	lsl.w	r5, r4, r5
 80011ea:	bf88      	it	hi
 80011ec:	f100 0a04 	addhi.w	sl, r0, #4
 80011f0:	ea48 0505 	orr.w	r5, r8, r5
 80011f4:	f8ca 5000 	str.w	r5, [sl]
 80011f8:	f8d1 a004 	ldr.w	sl, [r1, #4]
 80011fc:	f01a 5f80 	tst.w	sl, #268435456	; 0x10000000
 8001200:	d04d      	beq.n	800129e <HAL_GPIO_Init+0x12e>
 8001202:	4f44      	ldr	r7, [pc, #272]	; (8001314 <HAL_GPIO_Init+0x1a4>)
 8001204:	f026 0803 	bic.w	r8, r6, #3
 8001208:	69bd      	ldr	r5, [r7, #24]
 800120a:	f108 4880 	add.w	r8, r8, #1073741824	; 0x40000000
 800120e:	f045 0501 	orr.w	r5, r5, #1
 8001212:	61bd      	str	r5, [r7, #24]
 8001214:	69bd      	ldr	r5, [r7, #24]
 8001216:	f508 3880 	add.w	r8, r8, #65536	; 0x10000
 800121a:	f005 0501 	and.w	r5, r5, #1
 800121e:	9501      	str	r5, [sp, #4]
 8001220:	f006 0b03 	and.w	fp, r6, #3
 8001224:	9d01      	ldr	r5, [sp, #4]
 8001226:	ea4f 0b8b 	mov.w	fp, fp, lsl #2
 800122a:	f8d8 5008 	ldr.w	r5, [r8, #8]
 800122e:	fa09 f90b 	lsl.w	r9, r9, fp
 8001232:	ea25 0909 	bic.w	r9, r5, r9
 8001236:	4d38      	ldr	r5, [pc, #224]	; (8001318 <HAL_GPIO_Init+0x1a8>)
 8001238:	42a8      	cmp	r0, r5
 800123a:	d063      	beq.n	8001304 <HAL_GPIO_Init+0x194>
 800123c:	f505 6580 	add.w	r5, r5, #1024	; 0x400
 8001240:	42a8      	cmp	r0, r5
 8001242:	d061      	beq.n	8001308 <HAL_GPIO_Init+0x198>
 8001244:	f505 6580 	add.w	r5, r5, #1024	; 0x400
 8001248:	42a8      	cmp	r0, r5
 800124a:	d05f      	beq.n	800130c <HAL_GPIO_Init+0x19c>
 800124c:	f505 6580 	add.w	r5, r5, #1024	; 0x400
 8001250:	42a8      	cmp	r0, r5
 8001252:	bf0c      	ite	eq
 8001254:	2503      	moveq	r5, #3
 8001256:	2504      	movne	r5, #4
 8001258:	fa05 f50b 	lsl.w	r5, r5, fp
 800125c:	ea45 0509 	orr.w	r5, r5, r9
 8001260:	f8c8 5008 	str.w	r5, [r8, #8]
 8001264:	681d      	ldr	r5, [r3, #0]
 8001266:	f41a 3f80 	tst.w	sl, #65536	; 0x10000
 800126a:	bf14      	ite	ne
 800126c:	4315      	orrne	r5, r2
 800126e:	4395      	biceq	r5, r2
 8001270:	601d      	str	r5, [r3, #0]
 8001272:	685d      	ldr	r5, [r3, #4]
 8001274:	f41a 3f00 	tst.w	sl, #131072	; 0x20000
 8001278:	bf14      	ite	ne
 800127a:	4315      	orrne	r5, r2
 800127c:	4395      	biceq	r5, r2
 800127e:	605d      	str	r5, [r3, #4]
 8001280:	689d      	ldr	r5, [r3, #8]
 8001282:	f41a 1f80 	tst.w	sl, #1048576	; 0x100000
 8001286:	bf14      	ite	ne
 8001288:	4315      	orrne	r5, r2
 800128a:	4395      	biceq	r5, r2
 800128c:	609d      	str	r5, [r3, #8]
 800128e:	68dd      	ldr	r5, [r3, #12]
 8001290:	f41a 1f00 	tst.w	sl, #2097152	; 0x200000
 8001294:	bf14      	ite	ne
 8001296:	432a      	orrne	r2, r5
 8001298:	ea25 0202 	biceq.w	r2, r5, r2
 800129c:	60da      	str	r2, [r3, #12]
 800129e:	3601      	adds	r6, #1
 80012a0:	e76f      	b.n	8001182 <HAL_GPIO_Init+0x12>
 80012a2:	2d03      	cmp	r5, #3
 80012a4:	d022      	beq.n	80012ec <HAL_GPIO_Init+0x17c>
 80012a6:	2d11      	cmp	r5, #17
 80012a8:	d18a      	bne.n	80011c0 <HAL_GPIO_Init+0x50>
 80012aa:	68cc      	ldr	r4, [r1, #12]
 80012ac:	3404      	adds	r4, #4
 80012ae:	e787      	b.n	80011c0 <HAL_GPIO_Init+0x50>
 80012b0:	4f1a      	ldr	r7, [pc, #104]	; (800131c <HAL_GPIO_Init+0x1ac>)
 80012b2:	42bd      	cmp	r5, r7
 80012b4:	d009      	beq.n	80012ca <HAL_GPIO_Init+0x15a>
 80012b6:	d812      	bhi.n	80012de <HAL_GPIO_Init+0x16e>
 80012b8:	f8df 906c 	ldr.w	r9, [pc, #108]	; 8001328 <HAL_GPIO_Init+0x1b8>
 80012bc:	454d      	cmp	r5, r9
 80012be:	d004      	beq.n	80012ca <HAL_GPIO_Init+0x15a>
 80012c0:	f509 3980 	add.w	r9, r9, #65536	; 0x10000
 80012c4:	454d      	cmp	r5, r9
 80012c6:	f47f af7b 	bne.w	80011c0 <HAL_GPIO_Init+0x50>
 80012ca:	688c      	ldr	r4, [r1, #8]
 80012cc:	b1c4      	cbz	r4, 8001300 <HAL_GPIO_Init+0x190>
 80012ce:	2c01      	cmp	r4, #1
 80012d0:	bf0c      	ite	eq
 80012d2:	f8c0 8010 	streq.w	r8, [r0, #16]
 80012d6:	f8c0 8014 	strne.w	r8, [r0, #20]
 80012da:	2408      	movs	r4, #8
 80012dc:	e770      	b.n	80011c0 <HAL_GPIO_Init+0x50>
 80012de:	4565      	cmp	r5, ip
 80012e0:	d0f3      	beq.n	80012ca <HAL_GPIO_Init+0x15a>
 80012e2:	4575      	cmp	r5, lr
 80012e4:	d0f1      	beq.n	80012ca <HAL_GPIO_Init+0x15a>
 80012e6:	f8df 9044 	ldr.w	r9, [pc, #68]	; 800132c <HAL_GPIO_Init+0x1bc>
 80012ea:	e7eb      	b.n	80012c4 <HAL_GPIO_Init+0x154>
 80012ec:	2400      	movs	r4, #0
 80012ee:	e767      	b.n	80011c0 <HAL_GPIO_Init+0x50>
 80012f0:	68cc      	ldr	r4, [r1, #12]
 80012f2:	e765      	b.n	80011c0 <HAL_GPIO_Init+0x50>
 80012f4:	68cc      	ldr	r4, [r1, #12]
 80012f6:	3408      	adds	r4, #8
 80012f8:	e762      	b.n	80011c0 <HAL_GPIO_Init+0x50>
 80012fa:	68cc      	ldr	r4, [r1, #12]
 80012fc:	340c      	adds	r4, #12
 80012fe:	e75f      	b.n	80011c0 <HAL_GPIO_Init+0x50>
 8001300:	2404      	movs	r4, #4
 8001302:	e75d      	b.n	80011c0 <HAL_GPIO_Init+0x50>
 8001304:	2500      	movs	r5, #0
 8001306:	e7a7      	b.n	8001258 <HAL_GPIO_Init+0xe8>
 8001308:	2501      	movs	r5, #1
 800130a:	e7a5      	b.n	8001258 <HAL_GPIO_Init+0xe8>
 800130c:	2502      	movs	r5, #2
 800130e:	e7a3      	b.n	8001258 <HAL_GPIO_Init+0xe8>
 8001310:	40010400 	.word	0x40010400
 8001314:	40021000 	.word	0x40021000
 8001318:	40010800 	.word	0x40010800
 800131c:	10210000 	.word	0x10210000
 8001320:	10310000 	.word	0x10310000
 8001324:	10320000 	.word	0x10320000
 8001328:	10110000 	.word	0x10110000
 800132c:	10220000 	.word	0x10220000

08001330 <HAL_GPIO_DeInit>:
 8001330:	e92d 4ff7 	stmdb	sp!, {r0, r1, r2, r4, r5, r6, r7, r8, r9, sl, fp, lr}
 8001334:	f04f 0b04 	mov.w	fp, #4
 8001338:	2300      	movs	r3, #0
 800133a:	f04f 0a01 	mov.w	sl, #1
 800133e:	f04f 080f 	mov.w	r8, #15
 8001342:	eb00 020b 	add.w	r2, r0, fp
 8001346:	9201      	str	r2, [sp, #4]
 8001348:	4a31      	ldr	r2, [pc, #196]	; (8001410 <HAL_GPIO_DeInit+0xe0>)
 800134a:	fa31 f403 	lsrs.w	r4, r1, r3
 800134e:	d102      	bne.n	8001356 <HAL_GPIO_DeInit+0x26>
 8001350:	b003      	add	sp, #12
 8001352:	e8bd 8ff0 	ldmia.w	sp!, {r4, r5, r6, r7, r8, r9, sl, fp, pc}
 8001356:	fa0a f703 	lsl.w	r7, sl, r3
 800135a:	400f      	ands	r7, r1
 800135c:	d04f      	beq.n	80013fe <HAL_GPIO_DeInit+0xce>
 800135e:	f023 0403 	bic.w	r4, r3, #3
 8001362:	f104 4480 	add.w	r4, r4, #1073741824	; 0x40000000
 8001366:	f504 3480 	add.w	r4, r4, #65536	; 0x10000
 800136a:	f003 0c03 	and.w	ip, r3, #3
 800136e:	4d29      	ldr	r5, [pc, #164]	; (8001414 <HAL_GPIO_DeInit+0xe4>)
 8001370:	68a6      	ldr	r6, [r4, #8]
 8001372:	ea4f 0c8c 	mov.w	ip, ip, lsl #2
 8001376:	fa08 f90c 	lsl.w	r9, r8, ip
 800137a:	42a8      	cmp	r0, r5
 800137c:	ea09 0e06 	and.w	lr, r9, r6
 8001380:	d03f      	beq.n	8001402 <HAL_GPIO_DeInit+0xd2>
 8001382:	f505 6580 	add.w	r5, r5, #1024	; 0x400
 8001386:	42a8      	cmp	r0, r5
 8001388:	d03d      	beq.n	8001406 <HAL_GPIO_DeInit+0xd6>
 800138a:	f505 6580 	add.w	r5, r5, #1024	; 0x400
 800138e:	42a8      	cmp	r0, r5
 8001390:	d03b      	beq.n	800140a <HAL_GPIO_DeInit+0xda>
 8001392:	f505 6580 	add.w	r5, r5, #1024	; 0x400
 8001396:	42a8      	cmp	r0, r5
 8001398:	bf14      	ite	ne
 800139a:	2504      	movne	r5, #4
 800139c:	2503      	moveq	r5, #3
 800139e:	fa05 f50c 	lsl.w	r5, r5, ip
 80013a2:	4575      	cmp	r5, lr
 80013a4:	ea6f 0607 	mvn.w	r6, r7
 80013a8:	d10f      	bne.n	80013ca <HAL_GPIO_DeInit+0x9a>
 80013aa:	68a5      	ldr	r5, [r4, #8]
 80013ac:	ea25 0509 	bic.w	r5, r5, r9
 80013b0:	60a5      	str	r5, [r4, #8]
 80013b2:	6814      	ldr	r4, [r2, #0]
 80013b4:	4034      	ands	r4, r6
 80013b6:	6014      	str	r4, [r2, #0]
 80013b8:	6854      	ldr	r4, [r2, #4]
 80013ba:	4034      	ands	r4, r6
 80013bc:	6054      	str	r4, [r2, #4]
 80013be:	6894      	ldr	r4, [r2, #8]
 80013c0:	4034      	ands	r4, r6
 80013c2:	6094      	str	r4, [r2, #8]
 80013c4:	68d4      	ldr	r4, [r2, #12]
 80013c6:	4034      	ands	r4, r6
 80013c8:	60d4      	str	r4, [r2, #12]
 80013ca:	2fff      	cmp	r7, #255	; 0xff
 80013cc:	bf93      	iteet	ls
 80013ce:	4607      	movls	r7, r0
 80013d0:	f103 4480 	addhi.w	r4, r3, #1073741824	; 0x40000000
 80013d4:	3c08      	subhi	r4, #8
 80013d6:	f8d0 c000 	ldrls.w	ip, [r0]
 80013da:	bf8a      	itet	hi
 80013dc:	f8d0 c004 	ldrhi.w	ip, [r0, #4]
 80013e0:	009c      	lslls	r4, r3, #2
 80013e2:	00a4      	lslhi	r4, r4, #2
 80013e4:	fa08 f504 	lsl.w	r5, r8, r4
 80013e8:	bf88      	it	hi
 80013ea:	9f01      	ldrhi	r7, [sp, #4]
 80013ec:	fa0b f404 	lsl.w	r4, fp, r4
 80013f0:	ea2c 0505 	bic.w	r5, ip, r5
 80013f4:	4325      	orrs	r5, r4
 80013f6:	603d      	str	r5, [r7, #0]
 80013f8:	68c4      	ldr	r4, [r0, #12]
 80013fa:	4026      	ands	r6, r4
 80013fc:	60c6      	str	r6, [r0, #12]
 80013fe:	3301      	adds	r3, #1
 8001400:	e7a3      	b.n	800134a <HAL_GPIO_DeInit+0x1a>
 8001402:	2500      	movs	r5, #0
 8001404:	e7cb      	b.n	800139e <HAL_GPIO_DeInit+0x6e>
 8001406:	2501      	movs	r5, #1
 8001408:	e7c9      	b.n	800139e <HAL_GPIO_DeInit+0x6e>
 800140a:	2502      	movs	r5, #2
 800140c:	e7c7      	b.n	800139e <HAL_GPIO_DeInit+0x6e>
 800140e:	bf00      	nop
 8001410:	40010400 	.word	0x40010400
 8001414:	40010800 	.word	0x40010800

08001418 <HAL_GPIO_WritePin>:
 8001418:	b10a      	cbz	r2, 800141e <HAL_GPIO_WritePin+0x6>
 800141a:	6101      	str	r1, [r0, #16]
 800141c:	4770      	bx	lr
 800141e:	0409      	lsls	r1, r1, #16
 8001420:	e7fb      	b.n	800141a <HAL_GPIO_WritePin+0x2>
	...

08001424 <HAL_RCC_DeInit>:
 8001424:	b570      	push	{r4, r5, r6, lr}
 8001426:	f7ff fbd5 	bl	8000bd4 <HAL_GetTick>
 800142a:	4605      	mov	r5, r0
 800142c:	4c2f      	ldr	r4, [pc, #188]	; (80014ec <HAL_RCC_DeInit+0xc8>)
 800142e:	6823      	ldr	r3, [r4, #0]
 8001430:	f043 0301 	orr.w	r3, r3, #1
 8001434:	6023      	str	r3, [r4, #0]
 8001436:	6823      	ldr	r3, [r4, #0]
 8001438:	079b      	lsls	r3, r3, #30
 800143a:	d53b      	bpl.n	80014b4 <HAL_RCC_DeInit+0x90>
 800143c:	6823      	ldr	r3, [r4, #0]
 800143e:	f241 3688 	movw	r6, #5000	; 0x1388
 8001442:	f023 03f8 	bic.w	r3, r3, #248	; 0xf8
 8001446:	f043 0380 	orr.w	r3, r3, #128	; 0x80
 800144a:	6023      	str	r3, [r4, #0]
 800144c:	f7ff fbc2 	bl	8000bd4 <HAL_GetTick>
 8001450:	2300      	movs	r3, #0
 8001452:	4605      	mov	r5, r0
 8001454:	6063      	str	r3, [r4, #4]
 8001456:	6863      	ldr	r3, [r4, #4]
 8001458:	f013 0f0c 	tst.w	r3, #12
 800145c:	d132      	bne.n	80014c4 <HAL_RCC_DeInit+0xa0>
 800145e:	4b24      	ldr	r3, [pc, #144]	; (80014f0 <HAL_RCC_DeInit+0xcc>)
 8001460:	4a24      	ldr	r2, [pc, #144]	; (80014f4 <HAL_RCC_DeInit+0xd0>)
 8001462:	601a      	str	r2, [r3, #0]
 8001464:	4b24      	ldr	r3, [pc, #144]	; (80014f8 <HAL_RCC_DeInit+0xd4>)
 8001466:	6818      	ldr	r0, [r3, #0]
 8001468:	f7ff fb72 	bl	8000b50 <HAL_InitTick>
 800146c:	4605      	mov	r5, r0
 800146e:	2800      	cmp	r0, #0
 8001470:	d13a      	bne.n	80014e8 <HAL_RCC_DeInit+0xc4>
 8001472:	f7ff fbaf 	bl	8000bd4 <HAL_GetTick>
 8001476:	4606      	mov	r6, r0
 8001478:	6823      	ldr	r3, [r4, #0]
 800147a:	f023 7380 	bic.w	r3, r3, #16777216	; 0x1000000
 800147e:	6023      	str	r3, [r4, #0]
 8001480:	6823      	ldr	r3, [r4, #0]
 8001482:	f013 7300 	ands.w	r3, r3, #33554432	; 0x2000000
 8001486:	d123      	bne.n	80014d0 <HAL_RCC_DeInit+0xac>
 8001488:	6063      	str	r3, [r4, #4]
 800148a:	f7ff fba3 	bl	8000bd4 <HAL_GetTick>
 800148e:	4606      	mov	r6, r0
 8001490:	6823      	ldr	r3, [r4, #0]
 8001492:	f423 2310 	bic.w	r3, r3, #589824	; 0x90000
 8001496:	6023      	str	r3, [r4, #0]
 8001498:	6823      	ldr	r3, [r4, #0]
 800149a:	f413 3300 	ands.w	r3, r3, #131072	; 0x20000
 800149e:	d11d      	bne.n	80014dc <HAL_RCC_DeInit+0xb8>
 80014a0:	6822      	ldr	r2, [r4, #0]
 80014a2:	f422 2280 	bic.w	r2, r2, #262144	; 0x40000
 80014a6:	6022      	str	r2, [r4, #0]
 80014a8:	6a62      	ldr	r2, [r4, #36]	; 0x24
 80014aa:	f042 7280 	orr.w	r2, r2, #16777216	; 0x1000000
 80014ae:	6262      	str	r2, [r4, #36]	; 0x24
 80014b0:	60a3      	str	r3, [r4, #8]
 80014b2:	e005      	b.n	80014c0 <HAL_RCC_DeInit+0x9c>
 80014b4:	f7ff fb8e 	bl	8000bd4 <HAL_GetTick>
 80014b8:	1b40      	subs	r0, r0, r5
 80014ba:	2802      	cmp	r0, #2
 80014bc:	d9bb      	bls.n	8001436 <HAL_RCC_DeInit+0x12>
 80014be:	2503      	movs	r5, #3
 80014c0:	4628      	mov	r0, r5
 80014c2:	bd70      	pop	{r4, r5, r6, pc}
 80014c4:	f7ff fb86 	bl	8000bd4 <HAL_GetTick>
 80014c8:	1b40      	subs	r0, r0, r5
 80014ca:	42b0      	cmp	r0, r6
 80014cc:	d9c3      	bls.n	8001456 <HAL_RCC_DeInit+0x32>
 80014ce:	e7f6      	b.n	80014be <HAL_RCC_DeInit+0x9a>
 80014d0:	f7ff fb80 	bl	8000bd4 <HAL_GetTick>
 80014d4:	1b80      	subs	r0, r0, r6
 80014d6:	2802      	cmp	r0, #2
 80014d8:	d9d2      	bls.n	8001480 <HAL_RCC_DeInit+0x5c>
 80014da:	e7f0      	b.n	80014be <HAL_RCC_DeInit+0x9a>
 80014dc:	f7ff fb7a 	bl	8000bd4 <HAL_GetTick>
 80014e0:	1b80      	subs	r0, r0, r6
 80014e2:	2864      	cmp	r0, #100	; 0x64
 80014e4:	d9d8      	bls.n	8001498 <HAL_RCC_DeInit+0x74>
 80014e6:	e7ea      	b.n	80014be <HAL_RCC_DeInit+0x9a>
 80014e8:	2501      	movs	r5, #1
 80014ea:	e7e9      	b.n	80014c0 <HAL_RCC_DeInit+0x9c>
 80014ec:	40021000 	.word	0x40021000
 80014f0:	20000000 	.word	0x20000000
 80014f4:	007a1200 	.word	0x007a1200
 80014f8:	20000008 	.word	0x20000008

080014fc <HAL_RCC_OscConfig>:
 80014fc:	e92d 41f3 	stmdb	sp!, {r0, r1, r4, r5, r6, r7, r8, lr}
 8001500:	4605      	mov	r5, r0
 8001502:	b908      	cbnz	r0, 8001508 <HAL_RCC_OscConfig+0xc>
 8001504:	2001      	movs	r0, #1
 8001506:	e03c      	b.n	8001582 <HAL_RCC_OscConfig+0x86>
 8001508:	6803      	ldr	r3, [r0, #0]
 800150a:	07db      	lsls	r3, r3, #31
 800150c:	d410      	bmi.n	8001530 <HAL_RCC_OscConfig+0x34>
 800150e:	682b      	ldr	r3, [r5, #0]
 8001510:	079f      	lsls	r7, r3, #30
 8001512:	d45d      	bmi.n	80015d0 <HAL_RCC_OscConfig+0xd4>
 8001514:	682b      	ldr	r3, [r5, #0]
 8001516:	0719      	lsls	r1, r3, #28
 8001518:	f100 8094 	bmi.w	8001644 <HAL_RCC_OscConfig+0x148>
 800151c:	682b      	ldr	r3, [r5, #0]
 800151e:	075a      	lsls	r2, r3, #29
 8001520:	f100 80be 	bmi.w	80016a0 <HAL_RCC_OscConfig+0x1a4>
 8001524:	69e8      	ldr	r0, [r5, #28]
 8001526:	2800      	cmp	r0, #0
 8001528:	f040 812c 	bne.w	8001784 <HAL_RCC_OscConfig+0x288>
 800152c:	2000      	movs	r0, #0
 800152e:	e028      	b.n	8001582 <HAL_RCC_OscConfig+0x86>
 8001530:	4c8f      	ldr	r4, [pc, #572]	; (8001770 <HAL_RCC_OscConfig+0x274>)
 8001532:	6863      	ldr	r3, [r4, #4]
 8001534:	f003 030c 	and.w	r3, r3, #12
 8001538:	2b04      	cmp	r3, #4
 800153a:	d007      	beq.n	800154c <HAL_RCC_OscConfig+0x50>
 800153c:	6863      	ldr	r3, [r4, #4]
 800153e:	f003 030c 	and.w	r3, r3, #12
 8001542:	2b08      	cmp	r3, #8
 8001544:	d109      	bne.n	800155a <HAL_RCC_OscConfig+0x5e>
 8001546:	6863      	ldr	r3, [r4, #4]
 8001548:	03de      	lsls	r6, r3, #15
 800154a:	d506      	bpl.n	800155a <HAL_RCC_OscConfig+0x5e>
 800154c:	6823      	ldr	r3, [r4, #0]
 800154e:	039c      	lsls	r4, r3, #14
 8001550:	d5dd      	bpl.n	800150e <HAL_RCC_OscConfig+0x12>
 8001552:	686b      	ldr	r3, [r5, #4]
 8001554:	2b00      	cmp	r3, #0
 8001556:	d1da      	bne.n	800150e <HAL_RCC_OscConfig+0x12>
 8001558:	e7d4      	b.n	8001504 <HAL_RCC_OscConfig+0x8>
 800155a:	686b      	ldr	r3, [r5, #4]
 800155c:	f5b3 3f80 	cmp.w	r3, #65536	; 0x10000
 8001560:	d112      	bne.n	8001588 <HAL_RCC_OscConfig+0x8c>
 8001562:	6823      	ldr	r3, [r4, #0]
 8001564:	f443 3380 	orr.w	r3, r3, #65536	; 0x10000
 8001568:	6023      	str	r3, [r4, #0]
 800156a:	f7ff fb33 	bl	8000bd4 <HAL_GetTick>
 800156e:	4606      	mov	r6, r0
 8001570:	6823      	ldr	r3, [r4, #0]
 8001572:	0398      	lsls	r0, r3, #14
 8001574:	d4cb      	bmi.n	800150e <HAL_RCC_OscConfig+0x12>
 8001576:	f7ff fb2d 	bl	8000bd4 <HAL_GetTick>
 800157a:	1b80      	subs	r0, r0, r6
 800157c:	2864      	cmp	r0, #100	; 0x64
 800157e:	d9f7      	bls.n	8001570 <HAL_RCC_OscConfig+0x74>
 8001580:	2003      	movs	r0, #3
 8001582:	b002      	add	sp, #8
 8001584:	e8bd 81f0 	ldmia.w	sp!, {r4, r5, r6, r7, r8, pc}
 8001588:	b99b      	cbnz	r3, 80015b2 <HAL_RCC_OscConfig+0xb6>
 800158a:	6823      	ldr	r3, [r4, #0]
 800158c:	f423 3380 	bic.w	r3, r3, #65536	; 0x10000
 8001590:	6023      	str	r3, [r4, #0]
 8001592:	6823      	ldr	r3, [r4, #0]
 8001594:	f423 2380 	bic.w	r3, r3, #262144	; 0x40000
 8001598:	6023      	str	r3, [r4, #0]
 800159a:	f7ff fb1b 	bl	8000bd4 <HAL_GetTick>
 800159e:	4606      	mov	r6, r0
 80015a0:	6823      	ldr	r3, [r4, #0]
 80015a2:	0399      	lsls	r1, r3, #14
 80015a4:	d5b3      	bpl.n	800150e <HAL_RCC_OscConfig+0x12>
 80015a6:	f7ff fb15 	bl	8000bd4 <HAL_GetTick>
 80015aa:	1b80      	subs	r0, r0, r6
 80015ac:	2864      	cmp	r0, #100	; 0x64
 80015ae:	d9f7      	bls.n	80015a0 <HAL_RCC_OscConfig+0xa4>
 80015b0:	e7e6      	b.n	8001580 <HAL_RCC_OscConfig+0x84>
 80015b2:	f5b3 2fa0 	cmp.w	r3, #327680	; 0x50000
 80015b6:	6823      	ldr	r3, [r4, #0]
 80015b8:	d103      	bne.n	80015c2 <HAL_RCC_OscConfig+0xc6>
 80015ba:	f443 2380 	orr.w	r3, r3, #262144	; 0x40000
 80015be:	6023      	str	r3, [r4, #0]
 80015c0:	e7cf      	b.n	8001562 <HAL_RCC_OscConfig+0x66>
 80015c2:	f423 3380 	bic.w	r3, r3, #65536	; 0x10000
 80015c6:	6023      	str	r3, [r4, #0]
 80015c8:	6823      	ldr	r3, [r4, #0]
 80015ca:	f423 2380 	bic.w	r3, r3, #262144	; 0x40000
 80015ce:	e7cb      	b.n	8001568 <HAL_RCC_OscConfig+0x6c>
 80015d0:	4c67      	ldr	r4, [pc, #412]	; (8001770 <HAL_RCC_OscConfig+0x274>)
 80015d2:	6863      	ldr	r3, [r4, #4]
 80015d4:	f013 0f0c 	tst.w	r3, #12
 80015d8:	d007      	beq.n	80015ea <HAL_RCC_OscConfig+0xee>
 80015da:	6863      	ldr	r3, [r4, #4]
 80015dc:	f003 030c 	and.w	r3, r3, #12
 80015e0:	2b08      	cmp	r3, #8
 80015e2:	d110      	bne.n	8001606 <HAL_RCC_OscConfig+0x10a>
 80015e4:	6863      	ldr	r3, [r4, #4]
 80015e6:	03da      	lsls	r2, r3, #15
 80015e8:	d40d      	bmi.n	8001606 <HAL_RCC_OscConfig+0x10a>
 80015ea:	6823      	ldr	r3, [r4, #0]
 80015ec:	079b      	lsls	r3, r3, #30
 80015ee:	d502      	bpl.n	80015f6 <HAL_RCC_OscConfig+0xfa>
 80015f0:	692b      	ldr	r3, [r5, #16]
 80015f2:	2b01      	cmp	r3, #1
 80015f4:	d186      	bne.n	8001504 <HAL_RCC_OscConfig+0x8>
 80015f6:	6823      	ldr	r3, [r4, #0]
 80015f8:	696a      	ldr	r2, [r5, #20]
 80015fa:	f023 03f8 	bic.w	r3, r3, #248	; 0xf8
 80015fe:	ea43 03c2 	orr.w	r3, r3, r2, lsl #3
 8001602:	6023      	str	r3, [r4, #0]
 8001604:	e786      	b.n	8001514 <HAL_RCC_OscConfig+0x18>
 8001606:	692a      	ldr	r2, [r5, #16]
 8001608:	4b5a      	ldr	r3, [pc, #360]	; (8001774 <HAL_RCC_OscConfig+0x278>)
 800160a:	b16a      	cbz	r2, 8001628 <HAL_RCC_OscConfig+0x12c>
 800160c:	2201      	movs	r2, #1
 800160e:	601a      	str	r2, [r3, #0]
 8001610:	f7ff fae0 	bl	8000bd4 <HAL_GetTick>
 8001614:	4606      	mov	r6, r0
 8001616:	6823      	ldr	r3, [r4, #0]
 8001618:	079f      	lsls	r7, r3, #30
 800161a:	d4ec      	bmi.n	80015f6 <HAL_RCC_OscConfig+0xfa>
 800161c:	f7ff fada 	bl	8000bd4 <HAL_GetTick>
 8001620:	1b80      	subs	r0, r0, r6
 8001622:	2802      	cmp	r0, #2
 8001624:	d9f7      	bls.n	8001616 <HAL_RCC_OscConfig+0x11a>
 8001626:	e7ab      	b.n	8001580 <HAL_RCC_OscConfig+0x84>
 8001628:	601a      	str	r2, [r3, #0]
 800162a:	f7ff fad3 	bl	8000bd4 <HAL_GetTick>
 800162e:	4606      	mov	r6, r0
 8001630:	6823      	ldr	r3, [r4, #0]
 8001632:	0798      	lsls	r0, r3, #30
 8001634:	f57f af6e 	bpl.w	8001514 <HAL_RCC_OscConfig+0x18>
 8001638:	f7ff facc 	bl	8000bd4 <HAL_GetTick>
 800163c:	1b80      	subs	r0, r0, r6
 800163e:	2802      	cmp	r0, #2
 8001640:	d9f6      	bls.n	8001630 <HAL_RCC_OscConfig+0x134>
 8001642:	e79d      	b.n	8001580 <HAL_RCC_OscConfig+0x84>
 8001644:	69aa      	ldr	r2, [r5, #24]
 8001646:	4c4a      	ldr	r4, [pc, #296]	; (8001770 <HAL_RCC_OscConfig+0x274>)
 8001648:	4b4b      	ldr	r3, [pc, #300]	; (8001778 <HAL_RCC_OscConfig+0x27c>)
 800164a:	b1da      	cbz	r2, 8001684 <HAL_RCC_OscConfig+0x188>
 800164c:	2201      	movs	r2, #1
 800164e:	601a      	str	r2, [r3, #0]
 8001650:	f7ff fac0 	bl	8000bd4 <HAL_GetTick>
 8001654:	4606      	mov	r6, r0
 8001656:	6a63      	ldr	r3, [r4, #36]	; 0x24
 8001658:	079b      	lsls	r3, r3, #30
 800165a:	d50d      	bpl.n	8001678 <HAL_RCC_OscConfig+0x17c>
 800165c:	f44f 52fa 	mov.w	r2, #8000	; 0x1f40
 8001660:	4b46      	ldr	r3, [pc, #280]	; (800177c <HAL_RCC_OscConfig+0x280>)
 8001662:	681b      	ldr	r3, [r3, #0]
 8001664:	fbb3 f3f2 	udiv	r3, r3, r2
 8001668:	9301      	str	r3, [sp, #4]
 800166a:	bf00      	nop
 800166c:	9b01      	ldr	r3, [sp, #4]
 800166e:	1e5a      	subs	r2, r3, #1
 8001670:	9201      	str	r2, [sp, #4]
 8001672:	2b00      	cmp	r3, #0
 8001674:	d1f9      	bne.n	800166a <HAL_RCC_OscConfig+0x16e>
 8001676:	e751      	b.n	800151c <HAL_RCC_OscConfig+0x20>
 8001678:	f7ff faac 	bl	8000bd4 <HAL_GetTick>
 800167c:	1b80      	subs	r0, r0, r6
 800167e:	2802      	cmp	r0, #2
 8001680:	d9e9      	bls.n	8001656 <HAL_RCC_OscConfig+0x15a>
 8001682:	e77d      	b.n	8001580 <HAL_RCC_OscConfig+0x84>
 8001684:	601a      	str	r2, [r3, #0]
 8001686:	f7ff faa5 	bl	8000bd4 <HAL_GetTick>
 800168a:	4606      	mov	r6, r0
 800168c:	6a63      	ldr	r3, [r4, #36]	; 0x24
 800168e:	079f      	lsls	r7, r3, #30
 8001690:	f57f af44 	bpl.w	800151c <HAL_RCC_OscConfig+0x20>
 8001694:	f7ff fa9e 	bl	8000bd4 <HAL_GetTick>
 8001698:	1b80      	subs	r0, r0, r6
 800169a:	2802      	cmp	r0, #2
 800169c:	d9f6      	bls.n	800168c <HAL_RCC_OscConfig+0x190>
 800169e:	e76f      	b.n	8001580 <HAL_RCC_OscConfig+0x84>
 80016a0:	4c33      	ldr	r4, [pc, #204]	; (8001770 <HAL_RCC_OscConfig+0x274>)
 80016a2:	69e3      	ldr	r3, [r4, #28]
 80016a4:	00d8      	lsls	r0, r3, #3
 80016a6:	d424      	bmi.n	80016f2 <HAL_RCC_OscConfig+0x1f6>
 80016a8:	2701      	movs	r7, #1
 80016aa:	69e3      	ldr	r3, [r4, #28]
 80016ac:	f043 5380 	orr.w	r3, r3, #268435456	; 0x10000000
 80016b0:	61e3      	str	r3, [r4, #28]
 80016b2:	69e3      	ldr	r3, [r4, #28]
 80016b4:	f003 5380 	and.w	r3, r3, #268435456	; 0x10000000
 80016b8:	9300      	str	r3, [sp, #0]
 80016ba:	9b00      	ldr	r3, [sp, #0]
 80016bc:	4e30      	ldr	r6, [pc, #192]	; (8001780 <HAL_RCC_OscConfig+0x284>)
 80016be:	6833      	ldr	r3, [r6, #0]
 80016c0:	05d9      	lsls	r1, r3, #23
 80016c2:	d518      	bpl.n	80016f6 <HAL_RCC_OscConfig+0x1fa>
 80016c4:	68eb      	ldr	r3, [r5, #12]
 80016c6:	2b01      	cmp	r3, #1
 80016c8:	d126      	bne.n	8001718 <HAL_RCC_OscConfig+0x21c>
 80016ca:	6a23      	ldr	r3, [r4, #32]
 80016cc:	f043 0301 	orr.w	r3, r3, #1
 80016d0:	6223      	str	r3, [r4, #32]
 80016d2:	f7ff fa7f 	bl	8000bd4 <HAL_GetTick>
 80016d6:	f241 3688 	movw	r6, #5000	; 0x1388
 80016da:	4680      	mov	r8, r0
 80016dc:	6a23      	ldr	r3, [r4, #32]
 80016de:	079b      	lsls	r3, r3, #30
 80016e0:	d53f      	bpl.n	8001762 <HAL_RCC_OscConfig+0x266>
 80016e2:	2f00      	cmp	r7, #0
 80016e4:	f43f af1e 	beq.w	8001524 <HAL_RCC_OscConfig+0x28>
 80016e8:	69e3      	ldr	r3, [r4, #28]
 80016ea:	f023 5380 	bic.w	r3, r3, #268435456	; 0x10000000
 80016ee:	61e3      	str	r3, [r4, #28]
 80016f0:	e718      	b.n	8001524 <HAL_RCC_OscConfig+0x28>
 80016f2:	2700      	movs	r7, #0
 80016f4:	e7e2      	b.n	80016bc <HAL_RCC_OscConfig+0x1c0>
 80016f6:	6833      	ldr	r3, [r6, #0]
 80016f8:	f443 7380 	orr.w	r3, r3, #256	; 0x100
 80016fc:	6033      	str	r3, [r6, #0]
 80016fe:	f7ff fa69 	bl	8000bd4 <HAL_GetTick>
 8001702:	4680      	mov	r8, r0
 8001704:	6833      	ldr	r3, [r6, #0]
 8001706:	05da      	lsls	r2, r3, #23
 8001708:	d4dc      	bmi.n	80016c4 <HAL_RCC_OscConfig+0x1c8>
 800170a:	f7ff fa63 	bl	8000bd4 <HAL_GetTick>
 800170e:	eba0 0008 	sub.w	r0, r0, r8
 8001712:	2864      	cmp	r0, #100	; 0x64
 8001714:	d9f6      	bls.n	8001704 <HAL_RCC_OscConfig+0x208>
 8001716:	e733      	b.n	8001580 <HAL_RCC_OscConfig+0x84>
 8001718:	b9ab      	cbnz	r3, 8001746 <HAL_RCC_OscConfig+0x24a>
 800171a:	6a23      	ldr	r3, [r4, #32]
 800171c:	f241 3888 	movw	r8, #5000	; 0x1388
 8001720:	f023 0301 	bic.w	r3, r3, #1
 8001724:	6223      	str	r3, [r4, #32]
 8001726:	6a23      	ldr	r3, [r4, #32]
 8001728:	f023 0304 	bic.w	r3, r3, #4
 800172c:	6223      	str	r3, [r4, #32]
 800172e:	f7ff fa51 	bl	8000bd4 <HAL_GetTick>
 8001732:	4606      	mov	r6, r0
 8001734:	6a23      	ldr	r3, [r4, #32]
 8001736:	0798      	lsls	r0, r3, #30
 8001738:	d5d3      	bpl.n	80016e2 <HAL_RCC_OscConfig+0x1e6>
 800173a:	f7ff fa4b 	bl	8000bd4 <HAL_GetTick>
 800173e:	1b80      	subs	r0, r0, r6
 8001740:	4540      	cmp	r0, r8
 8001742:	d9f7      	bls.n	8001734 <HAL_RCC_OscConfig+0x238>
 8001744:	e71c      	b.n	8001580 <HAL_RCC_OscConfig+0x84>
 8001746:	2b05      	cmp	r3, #5
 8001748:	6a23      	ldr	r3, [r4, #32]
 800174a:	d103      	bne.n	8001754 <HAL_RCC_OscConfig+0x258>
 800174c:	f043 0304 	orr.w	r3, r3, #4
 8001750:	6223      	str	r3, [r4, #32]
 8001752:	e7ba      	b.n	80016ca <HAL_RCC_OscConfig+0x1ce>
 8001754:	f023 0301 	bic.w	r3, r3, #1
 8001758:	6223      	str	r3, [r4, #32]
 800175a:	6a23      	ldr	r3, [r4, #32]
 800175c:	f023 0304 	bic.w	r3, r3, #4
 8001760:	e7b6      	b.n	80016d0 <HAL_RCC_OscConfig+0x1d4>
 8001762:	f7ff fa37 	bl	8000bd4 <HAL_GetTick>
 8001766:	eba0 0008 	sub.w	r0, r0, r8
 800176a:	42b0      	cmp	r0, r6
 800176c:	d9b6      	bls.n	80016dc <HAL_RCC_OscConfig+0x1e0>
 800176e:	e707      	b.n	8001580 <HAL_RCC_OscConfig+0x84>
 8001770:	40021000 	.word	0x40021000
 8001774:	42420000 	.word	0x42420000
 8001778:	42420480 	.word	0x42420480
 800177c:	20000000 	.word	0x20000000
 8001780:	40007000 	.word	0x40007000
 8001784:	4b2a      	ldr	r3, [pc, #168]	; (8001830 <HAL_RCC_OscConfig+0x334>)
 8001786:	685a      	ldr	r2, [r3, #4]
 8001788:	461c      	mov	r4, r3
 800178a:	f002 020c 	and.w	r2, r2, #12
 800178e:	2a08      	cmp	r2, #8
 8001790:	d03d      	beq.n	800180e <HAL_RCC_OscConfig+0x312>
 8001792:	2300      	movs	r3, #0
 8001794:	4e27      	ldr	r6, [pc, #156]	; (8001834 <HAL_RCC_OscConfig+0x338>)
 8001796:	2802      	cmp	r0, #2
 8001798:	6033      	str	r3, [r6, #0]
 800179a:	d12b      	bne.n	80017f4 <HAL_RCC_OscConfig+0x2f8>
 800179c:	f7ff fa1a 	bl	8000bd4 <HAL_GetTick>
 80017a0:	4607      	mov	r7, r0
 80017a2:	6823      	ldr	r3, [r4, #0]
 80017a4:	0199      	lsls	r1, r3, #6
 80017a6:	d41f      	bmi.n	80017e8 <HAL_RCC_OscConfig+0x2ec>
 80017a8:	6a2b      	ldr	r3, [r5, #32]
 80017aa:	f5b3 3f80 	cmp.w	r3, #65536	; 0x10000
 80017ae:	d105      	bne.n	80017bc <HAL_RCC_OscConfig+0x2c0>
 80017b0:	6862      	ldr	r2, [r4, #4]
 80017b2:	68a9      	ldr	r1, [r5, #8]
 80017b4:	f422 3200 	bic.w	r2, r2, #131072	; 0x20000
 80017b8:	430a      	orrs	r2, r1
 80017ba:	6062      	str	r2, [r4, #4]
 80017bc:	6a69      	ldr	r1, [r5, #36]	; 0x24
 80017be:	6862      	ldr	r2, [r4, #4]
 80017c0:	430b      	orrs	r3, r1
 80017c2:	f422 1274 	bic.w	r2, r2, #3997696	; 0x3d0000
 80017c6:	4313      	orrs	r3, r2
 80017c8:	6063      	str	r3, [r4, #4]
 80017ca:	2301      	movs	r3, #1
 80017cc:	6033      	str	r3, [r6, #0]
 80017ce:	f7ff fa01 	bl	8000bd4 <HAL_GetTick>
 80017d2:	4605      	mov	r5, r0
 80017d4:	6823      	ldr	r3, [r4, #0]
 80017d6:	019a      	lsls	r2, r3, #6
 80017d8:	f53f aea8 	bmi.w	800152c <HAL_RCC_OscConfig+0x30>
 80017dc:	f7ff f9fa 	bl	8000bd4 <HAL_GetTick>
 80017e0:	1b40      	subs	r0, r0, r5
 80017e2:	2802      	cmp	r0, #2
 80017e4:	d9f6      	bls.n	80017d4 <HAL_RCC_OscConfig+0x2d8>
 80017e6:	e6cb      	b.n	8001580 <HAL_RCC_OscConfig+0x84>
 80017e8:	f7ff f9f4 	bl	8000bd4 <HAL_GetTick>
 80017ec:	1bc0      	subs	r0, r0, r7
 80017ee:	2802      	cmp	r0, #2
 80017f0:	d9d7      	bls.n	80017a2 <HAL_RCC_OscConfig+0x2a6>
 80017f2:	e6c5      	b.n	8001580 <HAL_RCC_OscConfig+0x84>
 80017f4:	f7ff f9ee 	bl	8000bd4 <HAL_GetTick>
 80017f8:	4605      	mov	r5, r0
 80017fa:	6823      	ldr	r3, [r4, #0]
 80017fc:	019b      	lsls	r3, r3, #6
 80017fe:	f57f ae95 	bpl.w	800152c <HAL_RCC_OscConfig+0x30>
 8001802:	f7ff f9e7 	bl	8000bd4 <HAL_GetTick>
 8001806:	1b40      	subs	r0, r0, r5
 8001808:	2802      	cmp	r0, #2
 800180a:	d9f6      	bls.n	80017fa <HAL_RCC_OscConfig+0x2fe>
 800180c:	e6b8      	b.n	8001580 <HAL_RCC_OscConfig+0x84>
 800180e:	2801      	cmp	r0, #1
 8001810:	f43f aeb7 	beq.w	8001582 <HAL_RCC_OscConfig+0x86>
 8001814:	6858      	ldr	r0, [r3, #4]
 8001816:	6a2b      	ldr	r3, [r5, #32]
 8001818:	f400 3280 	and.w	r2, r0, #65536	; 0x10000
 800181c:	429a      	cmp	r2, r3
 800181e:	f47f ae71 	bne.w	8001504 <HAL_RCC_OscConfig+0x8>
 8001822:	6a6b      	ldr	r3, [r5, #36]	; 0x24
 8001824:	f400 1070 	and.w	r0, r0, #3932160	; 0x3c0000
 8001828:	1ac0      	subs	r0, r0, r3
 800182a:	bf18      	it	ne
 800182c:	2001      	movne	r0, #1
 800182e:	e6a8      	b.n	8001582 <HAL_RCC_OscConfig+0x86>
 8001830:	40021000 	.word	0x40021000
 8001834:	42420060 	.word	0x42420060

08001838 <HAL_RCC_GetSysClockFreq>:
 8001838:	b530      	push	{r4, r5, lr}
 800183a:	4b18      	ldr	r3, [pc, #96]	; (800189c <HAL_RCC_GetSysClockFreq+0x64>)
 800183c:	b087      	sub	sp, #28
 800183e:	ac02      	add	r4, sp, #8
 8001840:	f103 0510 	add.w	r5, r3, #16
 8001844:	4622      	mov	r2, r4
 8001846:	6818      	ldr	r0, [r3, #0]
 8001848:	6859      	ldr	r1, [r3, #4]
 800184a:	3308      	adds	r3, #8
 800184c:	c203      	stmia	r2!, {r0, r1}
 800184e:	42ab      	cmp	r3, r5
 8001850:	4614      	mov	r4, r2
 8001852:	d1f7      	bne.n	8001844 <HAL_RCC_GetSysClockFreq+0xc>
 8001854:	f240 2301 	movw	r3, #513	; 0x201
 8001858:	4911      	ldr	r1, [pc, #68]	; (80018a0 <HAL_RCC_GetSysClockFreq+0x68>)
 800185a:	f8ad 3004 	strh.w	r3, [sp, #4]
 800185e:	684b      	ldr	r3, [r1, #4]
 8001860:	f003 020c 	and.w	r2, r3, #12
 8001864:	2a08      	cmp	r2, #8
 8001866:	d117      	bne.n	8001898 <HAL_RCC_GetSysClockFreq+0x60>
 8001868:	f3c3 4283 	ubfx	r2, r3, #18, #4
 800186c:	a806      	add	r0, sp, #24
 800186e:	4402      	add	r2, r0
 8001870:	03db      	lsls	r3, r3, #15
 8001872:	f812 2c10 	ldrb.w	r2, [r2, #-16]
 8001876:	d50c      	bpl.n	8001892 <HAL_RCC_GetSysClockFreq+0x5a>
 8001878:	684b      	ldr	r3, [r1, #4]
 800187a:	480a      	ldr	r0, [pc, #40]	; (80018a4 <HAL_RCC_GetSysClockFreq+0x6c>)
 800187c:	f3c3 4340 	ubfx	r3, r3, #17, #1
 8001880:	4350      	muls	r0, r2
 8001882:	aa06      	add	r2, sp, #24
 8001884:	4413      	add	r3, r2
 8001886:	f813 3c14 	ldrb.w	r3, [r3, #-20]
 800188a:	fbb0 f0f3 	udiv	r0, r0, r3
 800188e:	b007      	add	sp, #28
 8001890:	bd30      	pop	{r4, r5, pc}
 8001892:	4805      	ldr	r0, [pc, #20]	; (80018a8 <HAL_RCC_GetSysClockFreq+0x70>)
 8001894:	4350      	muls	r0, r2
 8001896:	e7fa      	b.n	800188e <HAL_RCC_GetSysClockFreq+0x56>
 8001898:	4802      	ldr	r0, [pc, #8]	; (80018a4 <HAL_RCC_GetSysClockFreq+0x6c>)
 800189a:	e7f8      	b.n	800188e <HAL_RCC_GetSysClockFreq+0x56>
 800189c:	08002120 	.word	0x08002120
 80018a0:	40021000 	.word	0x40021000
 80018a4:	007a1200 	.word	0x007a1200
 80018a8:	003d0900 	.word	0x003d0900

080018ac <HAL_RCC_ClockConfig>:
 80018ac:	e92d 41f0 	stmdb	sp!, {r4, r5, r6, r7, r8, lr}
 80018b0:	460d      	mov	r5, r1
 80018b2:	4604      	mov	r4, r0
 80018b4:	b910      	cbnz	r0, 80018bc <HAL_RCC_ClockConfig+0x10>
 80018b6:	2001      	movs	r0, #1
 80018b8:	e8bd 81f0 	ldmia.w	sp!, {r4, r5, r6, r7, r8, pc}
 80018bc:	4a44      	ldr	r2, [pc, #272]	; (80019d0 <HAL_RCC_ClockConfig+0x124>)
 80018be:	6813      	ldr	r3, [r2, #0]
 80018c0:	f003 0307 	and.w	r3, r3, #7
 80018c4:	428b      	cmp	r3, r1
 80018c6:	d328      	bcc.n	800191a <HAL_RCC_ClockConfig+0x6e>
 80018c8:	6821      	ldr	r1, [r4, #0]
 80018ca:	078e      	lsls	r6, r1, #30
 80018cc:	d430      	bmi.n	8001930 <HAL_RCC_ClockConfig+0x84>
 80018ce:	07ca      	lsls	r2, r1, #31
 80018d0:	d443      	bmi.n	800195a <HAL_RCC_ClockConfig+0xae>
 80018d2:	4a3f      	ldr	r2, [pc, #252]	; (80019d0 <HAL_RCC_ClockConfig+0x124>)
 80018d4:	6813      	ldr	r3, [r2, #0]
 80018d6:	f003 0307 	and.w	r3, r3, #7
 80018da:	42ab      	cmp	r3, r5
 80018dc:	d865      	bhi.n	80019aa <HAL_RCC_ClockConfig+0xfe>
 80018de:	6822      	ldr	r2, [r4, #0]
 80018e0:	4d3c      	ldr	r5, [pc, #240]	; (80019d4 <HAL_RCC_ClockConfig+0x128>)
 80018e2:	f012 0f04 	tst.w	r2, #4
 80018e6:	d16c      	bne.n	80019c2 <HAL_RCC_ClockConfig+0x116>
 80018e8:	0713      	lsls	r3, r2, #28
 80018ea:	d506      	bpl.n	80018fa <HAL_RCC_ClockConfig+0x4e>
 80018ec:	686b      	ldr	r3, [r5, #4]
 80018ee:	6922      	ldr	r2, [r4, #16]
 80018f0:	f423 5360 	bic.w	r3, r3, #14336	; 0x3800
 80018f4:	ea43 03c2 	orr.w	r3, r3, r2, lsl #3
 80018f8:	606b      	str	r3, [r5, #4]
 80018fa:	f7ff ff9d 	bl	8001838 <HAL_RCC_GetSysClockFreq>
 80018fe:	686b      	ldr	r3, [r5, #4]
 8001900:	4a35      	ldr	r2, [pc, #212]	; (80019d8 <HAL_RCC_ClockConfig+0x12c>)
 8001902:	f3c3 1303 	ubfx	r3, r3, #4, #4
 8001906:	5cd3      	ldrb	r3, [r2, r3]
 8001908:	40d8      	lsrs	r0, r3
 800190a:	4b34      	ldr	r3, [pc, #208]	; (80019dc <HAL_RCC_ClockConfig+0x130>)
 800190c:	6018      	str	r0, [r3, #0]
 800190e:	4b34      	ldr	r3, [pc, #208]	; (80019e0 <HAL_RCC_ClockConfig+0x134>)
 8001910:	6818      	ldr	r0, [r3, #0]
 8001912:	f7ff f91d 	bl	8000b50 <HAL_InitTick>
 8001916:	2000      	movs	r0, #0
 8001918:	e7ce      	b.n	80018b8 <HAL_RCC_ClockConfig+0xc>
 800191a:	6813      	ldr	r3, [r2, #0]
 800191c:	f023 0307 	bic.w	r3, r3, #7
 8001920:	430b      	orrs	r3, r1
 8001922:	6013      	str	r3, [r2, #0]
 8001924:	6813      	ldr	r3, [r2, #0]
 8001926:	f003 0307 	and.w	r3, r3, #7
 800192a:	428b      	cmp	r3, r1
 800192c:	d1c3      	bne.n	80018b6 <HAL_RCC_ClockConfig+0xa>
 800192e:	e7cb      	b.n	80018c8 <HAL_RCC_ClockConfig+0x1c>
 8001930:	4b28      	ldr	r3, [pc, #160]	; (80019d4 <HAL_RCC_ClockConfig+0x128>)
 8001932:	f011 0f04 	tst.w	r1, #4
 8001936:	bf1e      	ittt	ne
 8001938:	685a      	ldrne	r2, [r3, #4]
 800193a:	f442 62e0 	orrne.w	r2, r2, #1792	; 0x700
 800193e:	605a      	strne	r2, [r3, #4]
 8001940:	0708      	lsls	r0, r1, #28
 8001942:	bf42      	ittt	mi
 8001944:	685a      	ldrmi	r2, [r3, #4]
 8001946:	f442 5260 	orrmi.w	r2, r2, #14336	; 0x3800
 800194a:	605a      	strmi	r2, [r3, #4]
 800194c:	685a      	ldr	r2, [r3, #4]
 800194e:	68a0      	ldr	r0, [r4, #8]
 8001950:	f022 02f0 	bic.w	r2, r2, #240	; 0xf0
 8001954:	4302      	orrs	r2, r0
 8001956:	605a      	str	r2, [r3, #4]
 8001958:	e7b9      	b.n	80018ce <HAL_RCC_ClockConfig+0x22>
 800195a:	6862      	ldr	r2, [r4, #4]
 800195c:	4e1d      	ldr	r6, [pc, #116]	; (80019d4 <HAL_RCC_ClockConfig+0x128>)
 800195e:	2a01      	cmp	r2, #1
 8001960:	6833      	ldr	r3, [r6, #0]
 8001962:	d11a      	bne.n	800199a <HAL_RCC_ClockConfig+0xee>
 8001964:	f413 3f00 	tst.w	r3, #131072	; 0x20000
 8001968:	d0a5      	beq.n	80018b6 <HAL_RCC_ClockConfig+0xa>
 800196a:	6873      	ldr	r3, [r6, #4]
 800196c:	f241 3888 	movw	r8, #5000	; 0x1388
 8001970:	f023 0303 	bic.w	r3, r3, #3
 8001974:	4313      	orrs	r3, r2
 8001976:	6073      	str	r3, [r6, #4]
 8001978:	f7ff f92c 	bl	8000bd4 <HAL_GetTick>
 800197c:	4607      	mov	r7, r0
 800197e:	6873      	ldr	r3, [r6, #4]
 8001980:	6862      	ldr	r2, [r4, #4]
 8001982:	f003 030c 	and.w	r3, r3, #12
 8001986:	ebb3 0f82 	cmp.w	r3, r2, lsl #2
 800198a:	d0a2      	beq.n	80018d2 <HAL_RCC_ClockConfig+0x26>
 800198c:	f7ff f922 	bl	8000bd4 <HAL_GetTick>
 8001990:	1bc0      	subs	r0, r0, r7
 8001992:	4540      	cmp	r0, r8
 8001994:	d9f3      	bls.n	800197e <HAL_RCC_ClockConfig+0xd2>
 8001996:	2003      	movs	r0, #3
 8001998:	e78e      	b.n	80018b8 <HAL_RCC_ClockConfig+0xc>
 800199a:	2a02      	cmp	r2, #2
 800199c:	d102      	bne.n	80019a4 <HAL_RCC_ClockConfig+0xf8>
 800199e:	f013 7f00 	tst.w	r3, #33554432	; 0x2000000
 80019a2:	e7e1      	b.n	8001968 <HAL_RCC_ClockConfig+0xbc>
 80019a4:	f013 0f02 	tst.w	r3, #2
 80019a8:	e7de      	b.n	8001968 <HAL_RCC_ClockConfig+0xbc>
 80019aa:	6813      	ldr	r3, [r2, #0]
 80019ac:	f023 0307 	bic.w	r3, r3, #7
 80019b0:	432b      	orrs	r3, r5
 80019b2:	6013      	str	r3, [r2, #0]
 80019b4:	6813      	ldr	r3, [r2, #0]
 80019b6:	f003 0307 	and.w	r3, r3, #7
 80019ba:	42ab      	cmp	r3, r5
 80019bc:	f47f af7b 	bne.w	80018b6 <HAL_RCC_ClockConfig+0xa>
 80019c0:	e78d      	b.n	80018de <HAL_RCC_ClockConfig+0x32>
 80019c2:	686b      	ldr	r3, [r5, #4]
 80019c4:	68e1      	ldr	r1, [r4, #12]
 80019c6:	f423 63e0 	bic.w	r3, r3, #1792	; 0x700
 80019ca:	430b      	orrs	r3, r1
 80019cc:	606b      	str	r3, [r5, #4]
 80019ce:	e78b      	b.n	80018e8 <HAL_RCC_ClockConfig+0x3c>
 80019d0:	40022000 	.word	0x40022000
 80019d4:	40021000 	.word	0x40021000
 80019d8:	0800222a 	.word	0x0800222a
 80019dc:	20000000 	.word	0x20000000
 80019e0:	20000008 	.word	0x20000008

080019e4 <HAL_RCC_GetPCLK1Freq>:
 80019e4:	4b04      	ldr	r3, [pc, #16]	; (80019f8 <HAL_RCC_GetPCLK1Freq+0x14>)
 80019e6:	4a05      	ldr	r2, [pc, #20]	; (80019fc <HAL_RCC_GetPCLK1Freq+0x18>)
 80019e8:	685b      	ldr	r3, [r3, #4]
 80019ea:	f3c3 2302 	ubfx	r3, r3, #8, #3
 80019ee:	5cd3      	ldrb	r3, [r2, r3]
 80019f0:	4a03      	ldr	r2, [pc, #12]	; (8001a00 <HAL_RCC_GetPCLK1Freq+0x1c>)
 80019f2:	6810      	ldr	r0, [r2, #0]
 80019f4:	40d8      	lsrs	r0, r3
 80019f6:	4770      	bx	lr
 80019f8:	40021000 	.word	0x40021000
 80019fc:	0800223a 	.word	0x0800223a
 8001a00:	20000000 	.word	0x20000000

08001a04 <HAL_RCC_GetPCLK2Freq>:
 8001a04:	4b04      	ldr	r3, [pc, #16]	; (8001a18 <HAL_RCC_GetPCLK2Freq+0x14>)
 8001a06:	4a05      	ldr	r2, [pc, #20]	; (8001a1c <HAL_RCC_GetPCLK2Freq+0x18>)
 8001a08:	685b      	ldr	r3, [r3, #4]
 8001a0a:	f3c3 23c2 	ubfx	r3, r3, #11, #3
 8001a0e:	5cd3      	ldrb	r3, [r2, r3]
 8001a10:	4a03      	ldr	r2, [pc, #12]	; (8001a20 <HAL_RCC_GetPCLK2Freq+0x1c>)
 8001a12:	6810      	ldr	r0, [r2, #0]
 8001a14:	40d8      	lsrs	r0, r3
 8001a16:	4770      	bx	lr
 8001a18:	40021000 	.word	0x40021000
 8001a1c:	0800223a 	.word	0x0800223a
 8001a20:	20000000 	.word	0x20000000

08001a24 <TIM_OC1_SetConfig>:
 8001a24:	6a03      	ldr	r3, [r0, #32]
 8001a26:	b570      	push	{r4, r5, r6, lr}
 8001a28:	f023 0301 	bic.w	r3, r3, #1
 8001a2c:	6203      	str	r3, [r0, #32]
 8001a2e:	6a03      	ldr	r3, [r0, #32]
 8001a30:	6844      	ldr	r4, [r0, #4]
 8001a32:	6982      	ldr	r2, [r0, #24]
 8001a34:	680d      	ldr	r5, [r1, #0]
 8001a36:	f022 0273 	bic.w	r2, r2, #115	; 0x73
 8001a3a:	432a      	orrs	r2, r5
 8001a3c:	688d      	ldr	r5, [r1, #8]
 8001a3e:	f023 0302 	bic.w	r3, r3, #2
 8001a42:	432b      	orrs	r3, r5
 8001a44:	4d0a      	ldr	r5, [pc, #40]	; (8001a70 <TIM_OC1_SetConfig+0x4c>)
 8001a46:	42a8      	cmp	r0, r5
 8001a48:	d10b      	bne.n	8001a62 <TIM_OC1_SetConfig+0x3e>
 8001a4a:	68cd      	ldr	r5, [r1, #12]
 8001a4c:	f023 0308 	bic.w	r3, r3, #8
 8001a50:	432b      	orrs	r3, r5
 8001a52:	f424 7440 	bic.w	r4, r4, #768	; 0x300
 8001a56:	e9d1 5605 	ldrd	r5, r6, [r1, #20]
 8001a5a:	4335      	orrs	r5, r6
 8001a5c:	f023 0304 	bic.w	r3, r3, #4
 8001a60:	432c      	orrs	r4, r5
 8001a62:	6044      	str	r4, [r0, #4]
 8001a64:	6182      	str	r2, [r0, #24]
 8001a66:	684a      	ldr	r2, [r1, #4]
 8001a68:	6342      	str	r2, [r0, #52]	; 0x34
 8001a6a:	6203      	str	r3, [r0, #32]
 8001a6c:	bd70      	pop	{r4, r5, r6, pc}
 8001a6e:	bf00      	nop
 8001a70:	40012c00 	.word	0x40012c00

08001a74 <TIM_OC3_SetConfig>:
 8001a74:	6a03      	ldr	r3, [r0, #32]
 8001a76:	b570      	push	{r4, r5, r6, lr}
 8001a78:	f423 7380 	bic.w	r3, r3, #256	; 0x100
 8001a7c:	6203      	str	r3, [r0, #32]
 8001a7e:	6a03      	ldr	r3, [r0, #32]
 8001a80:	6844      	ldr	r4, [r0, #4]
 8001a82:	69c2      	ldr	r2, [r0, #28]
 8001a84:	680d      	ldr	r5, [r1, #0]
 8001a86:	f022 0273 	bic.w	r2, r2, #115	; 0x73
 8001a8a:	432a      	orrs	r2, r5
 8001a8c:	688d      	ldr	r5, [r1, #8]
 8001a8e:	f423 7300 	bic.w	r3, r3, #512	; 0x200
 8001a92:	ea43 2305 	orr.w	r3, r3, r5, lsl #8
 8001a96:	4d0b      	ldr	r5, [pc, #44]	; (8001ac4 <TIM_OC3_SetConfig+0x50>)
 8001a98:	42a8      	cmp	r0, r5
 8001a9a:	d10d      	bne.n	8001ab8 <TIM_OC3_SetConfig+0x44>
 8001a9c:	68cd      	ldr	r5, [r1, #12]
 8001a9e:	f423 6300 	bic.w	r3, r3, #2048	; 0x800
 8001aa2:	ea43 2305 	orr.w	r3, r3, r5, lsl #8
 8001aa6:	f424 5440 	bic.w	r4, r4, #12288	; 0x3000
 8001aaa:	e9d1 5605 	ldrd	r5, r6, [r1, #20]
 8001aae:	4335      	orrs	r5, r6
 8001ab0:	f423 6380 	bic.w	r3, r3, #1024	; 0x400
 8001ab4:	ea44 1405 	orr.w	r4, r4, r5, lsl #4
 8001ab8:	6044      	str	r4, [r0, #4]
 8001aba:	61c2      	str	r2, [r0, #28]
 8001abc:	684a      	ldr	r2, [r1, #4]
 8001abe:	63c2      	str	r2, [r0, #60]	; 0x3c
 8001ac0:	6203      	str	r3, [r0, #32]
 8001ac2:	bd70      	pop	{r4, r5, r6, pc}
 8001ac4:	40012c00 	.word	0x40012c00

08001ac8 <TIM_OC4_SetConfig>:
 8001ac8:	6a03      	ldr	r3, [r0, #32]
 8001aca:	b530      	push	{r4, r5, lr}
 8001acc:	f423 5380 	bic.w	r3, r3, #4096	; 0x1000
 8001ad0:	6203      	str	r3, [r0, #32]
 8001ad2:	6a03      	ldr	r3, [r0, #32]
 8001ad4:	6844      	ldr	r4, [r0, #4]
 8001ad6:	69c2      	ldr	r2, [r0, #28]
 8001ad8:	680d      	ldr	r5, [r1, #0]
 8001ada:	f422 42e6 	bic.w	r2, r2, #29440	; 0x7300
 8001ade:	ea42 2205 	orr.w	r2, r2, r5, lsl #8
 8001ae2:	688d      	ldr	r5, [r1, #8]
 8001ae4:	f423 5300 	bic.w	r3, r3, #8192	; 0x2000
 8001ae8:	ea43 3305 	orr.w	r3, r3, r5, lsl #12
 8001aec:	4d06      	ldr	r5, [pc, #24]	; (8001b08 <TIM_OC4_SetConfig+0x40>)
 8001aee:	42a8      	cmp	r0, r5
 8001af0:	bf02      	ittt	eq
 8001af2:	694d      	ldreq	r5, [r1, #20]
 8001af4:	f424 4480 	biceq.w	r4, r4, #16384	; 0x4000
 8001af8:	ea44 1485 	orreq.w	r4, r4, r5, lsl #6
 8001afc:	6044      	str	r4, [r0, #4]
 8001afe:	61c2      	str	r2, [r0, #28]
 8001b00:	684a      	ldr	r2, [r1, #4]
 8001b02:	6402      	str	r2, [r0, #64]	; 0x40
 8001b04:	6203      	str	r3, [r0, #32]
 8001b06:	bd30      	pop	{r4, r5, pc}
 8001b08:	40012c00 	.word	0x40012c00

08001b0c <HAL_TIM_PWM_DeInit>:
 8001b0c:	2302      	movs	r3, #2
 8001b0e:	f241 1211 	movw	r2, #4369	; 0x1111
 8001b12:	b510      	push	{r4, lr}
 8001b14:	f880 303d 	strb.w	r3, [r0, #61]	; 0x3d
 8001b18:	6803      	ldr	r3, [r0, #0]
 8001b1a:	4604      	mov	r4, r0
 8001b1c:	6a19      	ldr	r1, [r3, #32]
 8001b1e:	4211      	tst	r1, r2
 8001b20:	d108      	bne.n	8001b34 <HAL_TIM_PWM_DeInit+0x28>
 8001b22:	f240 4244 	movw	r2, #1092	; 0x444
 8001b26:	6a19      	ldr	r1, [r3, #32]
 8001b28:	4211      	tst	r1, r2
 8001b2a:	bf02      	ittt	eq
 8001b2c:	681a      	ldreq	r2, [r3, #0]
 8001b2e:	f022 0201 	biceq.w	r2, r2, #1
 8001b32:	601a      	streq	r2, [r3, #0]
 8001b34:	4620      	mov	r0, r4
 8001b36:	f7fe fedf 	bl	80008f8 <HAL_TIM_PWM_MspDeInit>
 8001b3a:	2000      	movs	r0, #0
 8001b3c:	f884 0046 	strb.w	r0, [r4, #70]	; 0x46
 8001b40:	f884 003c 	strb.w	r0, [r4, #60]	; 0x3c
 8001b44:	f884 003e 	strb.w	r0, [r4, #62]	; 0x3e
 8001b48:	f884 003f 	strb.w	r0, [r4, #63]	; 0x3f
 8001b4c:	f884 0040 	strb.w	r0, [r4, #64]	; 0x40
 8001b50:	f884 0041 	strb.w	r0, [r4, #65]	; 0x41
 8001b54:	f884 0042 	strb.w	r0, [r4, #66]	; 0x42
 8001b58:	f884 0043 	strb.w	r0, [r4, #67]	; 0x43
 8001b5c:	f884 0044 	strb.w	r0, [r4, #68]	; 0x44
 8001b60:	f884 0045 	strb.w	r0, [r4, #69]	; 0x45
 8001b64:	f884 003d 	strb.w	r0, [r4, #61]	; 0x3d
 8001b68:	bd10      	pop	{r4, pc}
	...

08001b6c <TIM_Base_SetConfig>:
 8001b6c:	4a1a      	ldr	r2, [pc, #104]	; (8001bd8 <TIM_Base_SetConfig+0x6c>)
 8001b6e:	6803      	ldr	r3, [r0, #0]
 8001b70:	4290      	cmp	r0, r2
 8001b72:	d00a      	beq.n	8001b8a <TIM_Base_SetConfig+0x1e>
 8001b74:	f1b0 4f80 	cmp.w	r0, #1073741824	; 0x40000000
 8001b78:	d007      	beq.n	8001b8a <TIM_Base_SetConfig+0x1e>
 8001b7a:	f5a2 3294 	sub.w	r2, r2, #75776	; 0x12800
 8001b7e:	4290      	cmp	r0, r2
 8001b80:	d003      	beq.n	8001b8a <TIM_Base_SetConfig+0x1e>
 8001b82:	f502 6280 	add.w	r2, r2, #1024	; 0x400
 8001b86:	4290      	cmp	r0, r2
 8001b88:	d115      	bne.n	8001bb6 <TIM_Base_SetConfig+0x4a>
 8001b8a:	684a      	ldr	r2, [r1, #4]
 8001b8c:	f023 0370 	bic.w	r3, r3, #112	; 0x70
 8001b90:	4313      	orrs	r3, r2
 8001b92:	4a11      	ldr	r2, [pc, #68]	; (8001bd8 <TIM_Base_SetConfig+0x6c>)
 8001b94:	4290      	cmp	r0, r2
 8001b96:	d00a      	beq.n	8001bae <TIM_Base_SetConfig+0x42>
 8001b98:	f1b0 4f80 	cmp.w	r0, #1073741824	; 0x40000000
 8001b9c:	d007      	beq.n	8001bae <TIM_Base_SetConfig+0x42>
 8001b9e:	f5a2 3294 	sub.w	r2, r2, #75776	; 0x12800
 8001ba2:	4290      	cmp	r0, r2
 8001ba4:	d003      	beq.n	8001bae <TIM_Base_SetConfig+0x42>
 8001ba6:	f502 6280 	add.w	r2, r2, #1024	; 0x400
 8001baa:	4290      	cmp	r0, r2
 8001bac:	d103      	bne.n	8001bb6 <TIM_Base_SetConfig+0x4a>
 8001bae:	68ca      	ldr	r2, [r1, #12]
 8001bb0:	f423 7340 	bic.w	r3, r3, #768	; 0x300
 8001bb4:	4313      	orrs	r3, r2
 8001bb6:	694a      	ldr	r2, [r1, #20]
 8001bb8:	f023 0380 	bic.w	r3, r3, #128	; 0x80
 8001bbc:	4313      	orrs	r3, r2
 8001bbe:	6003      	str	r3, [r0, #0]
 8001bc0:	688b      	ldr	r3, [r1, #8]
 8001bc2:	62c3      	str	r3, [r0, #44]	; 0x2c
 8001bc4:	680b      	ldr	r3, [r1, #0]
 8001bc6:	6283      	str	r3, [r0, #40]	; 0x28
 8001bc8:	4b03      	ldr	r3, [pc, #12]	; (8001bd8 <TIM_Base_SetConfig+0x6c>)
 8001bca:	4298      	cmp	r0, r3
 8001bcc:	bf04      	itt	eq
 8001bce:	690b      	ldreq	r3, [r1, #16]
 8001bd0:	6303      	streq	r3, [r0, #48]	; 0x30
 8001bd2:	2301      	movs	r3, #1
 8001bd4:	6143      	str	r3, [r0, #20]
 8001bd6:	4770      	bx	lr
 8001bd8:	40012c00 	.word	0x40012c00

08001bdc <HAL_TIM_PWM_Init>:
 8001bdc:	b510      	push	{r4, lr}
 8001bde:	4604      	mov	r4, r0
 8001be0:	b330      	cbz	r0, 8001c30 <HAL_TIM_PWM_Init+0x54>
 8001be2:	f890 303d 	ldrb.w	r3, [r0, #61]	; 0x3d
 8001be6:	f003 02ff 	and.w	r2, r3, #255	; 0xff
 8001bea:	b91b      	cbnz	r3, 8001bf4 <HAL_TIM_PWM_Init+0x18>
 8001bec:	f880 203c 	strb.w	r2, [r0, #60]	; 0x3c
 8001bf0:	f7fe fe26 	bl	8000840 <HAL_TIM_PWM_MspInit>
 8001bf4:	2302      	movs	r3, #2
 8001bf6:	6820      	ldr	r0, [r4, #0]
 8001bf8:	f884 303d 	strb.w	r3, [r4, #61]	; 0x3d
 8001bfc:	1d21      	adds	r1, r4, #4
 8001bfe:	f7ff ffb5 	bl	8001b6c <TIM_Base_SetConfig>
 8001c02:	2301      	movs	r3, #1
 8001c04:	2000      	movs	r0, #0
 8001c06:	f884 3046 	strb.w	r3, [r4, #70]	; 0x46
 8001c0a:	f884 303e 	strb.w	r3, [r4, #62]	; 0x3e
 8001c0e:	f884 303f 	strb.w	r3, [r4, #63]	; 0x3f
 8001c12:	f884 3040 	strb.w	r3, [r4, #64]	; 0x40
 8001c16:	f884 3041 	strb.w	r3, [r4, #65]	; 0x41
 8001c1a:	f884 3042 	strb.w	r3, [r4, #66]	; 0x42
 8001c1e:	f884 3043 	strb.w	r3, [r4, #67]	; 0x43
 8001c22:	f884 3044 	strb.w	r3, [r4, #68]	; 0x44
 8001c26:	f884 3045 	strb.w	r3, [r4, #69]	; 0x45
 8001c2a:	f884 303d 	strb.w	r3, [r4, #61]	; 0x3d
 8001c2e:	bd10      	pop	{r4, pc}
 8001c30:	2001      	movs	r0, #1
 8001c32:	e7fc      	b.n	8001c2e <HAL_TIM_PWM_Init+0x52>

08001c34 <TIM_OC2_SetConfig>:
 8001c34:	6a03      	ldr	r3, [r0, #32]
 8001c36:	b570      	push	{r4, r5, r6, lr}
 8001c38:	f023 0310 	bic.w	r3, r3, #16
 8001c3c:	6203      	str	r3, [r0, #32]
 8001c3e:	6a03      	ldr	r3, [r0, #32]
 8001c40:	6844      	ldr	r4, [r0, #4]
 8001c42:	6982      	ldr	r2, [r0, #24]
 8001c44:	680d      	ldr	r5, [r1, #0]
 8001c46:	f422 42e6 	bic.w	r2, r2, #29440	; 0x7300
 8001c4a:	ea42 2205 	orr.w	r2, r2, r5, lsl #8
 8001c4e:	688d      	ldr	r5, [r1, #8]
 8001c50:	f023 0320 	bic.w	r3, r3, #32
 8001c54:	ea43 1305 	orr.w	r3, r3, r5, lsl #4
 8001c58:	4d0b      	ldr	r5, [pc, #44]	; (8001c88 <TIM_OC2_SetConfig+0x54>)
 8001c5a:	42a8      	cmp	r0, r5
 8001c5c:	d10d      	bne.n	8001c7a <TIM_OC2_SetConfig+0x46>
 8001c5e:	68cd      	ldr	r5, [r1, #12]
 8001c60:	f023 0380 	bic.w	r3, r3, #128	; 0x80
 8001c64:	ea43 1305 	orr.w	r3, r3, r5, lsl #4
 8001c68:	f424 6440 	bic.w	r4, r4, #3072	; 0xc00
 8001c6c:	e9d1 5605 	ldrd	r5, r6, [r1, #20]
 8001c70:	4335      	orrs	r5, r6
 8001c72:	f023 0340 	bic.w	r3, r3, #64	; 0x40
 8001c76:	ea44 0485 	orr.w	r4, r4, r5, lsl #2
 8001c7a:	6044      	str	r4, [r0, #4]
 8001c7c:	6182      	str	r2, [r0, #24]
 8001c7e:	684a      	ldr	r2, [r1, #4]
 8001c80:	6382      	str	r2, [r0, #56]	; 0x38
 8001c82:	6203      	str	r3, [r0, #32]
 8001c84:	bd70      	pop	{r4, r5, r6, pc}
 8001c86:	bf00      	nop
 8001c88:	40012c00 	.word	0x40012c00

08001c8c <HAL_TIM_PWM_ConfigChannel>:
 8001c8c:	b538      	push	{r3, r4, r5, lr}
 8001c8e:	f890 303c 	ldrb.w	r3, [r0, #60]	; 0x3c
 8001c92:	4604      	mov	r4, r0
 8001c94:	2b01      	cmp	r3, #1
 8001c96:	d054      	beq.n	8001d42 <HAL_TIM_PWM_ConfigChannel+0xb6>
 8001c98:	2301      	movs	r3, #1
 8001c9a:	f880 303c 	strb.w	r3, [r0, #60]	; 0x3c
 8001c9e:	2a0c      	cmp	r2, #12
 8001ca0:	d818      	bhi.n	8001cd4 <HAL_TIM_PWM_ConfigChannel+0x48>
 8001ca2:	e8df f002 	tbb	[pc, r2]
 8001ca6:	1707      	.short	0x1707
 8001ca8:	171b1717 	.word	0x171b1717
 8001cac:	172c1717 	.word	0x172c1717
 8001cb0:	1717      	.short	0x1717
 8001cb2:	3d          	.byte	0x3d
 8001cb3:	00          	.byte	0x00
 8001cb4:	6800      	ldr	r0, [r0, #0]
 8001cb6:	f7ff feb5 	bl	8001a24 <TIM_OC1_SetConfig>
 8001cba:	6823      	ldr	r3, [r4, #0]
 8001cbc:	6909      	ldr	r1, [r1, #16]
 8001cbe:	699a      	ldr	r2, [r3, #24]
 8001cc0:	f042 0208 	orr.w	r2, r2, #8
 8001cc4:	619a      	str	r2, [r3, #24]
 8001cc6:	699a      	ldr	r2, [r3, #24]
 8001cc8:	f022 0204 	bic.w	r2, r2, #4
 8001ccc:	619a      	str	r2, [r3, #24]
 8001cce:	699a      	ldr	r2, [r3, #24]
 8001cd0:	430a      	orrs	r2, r1
 8001cd2:	619a      	str	r2, [r3, #24]
 8001cd4:	2000      	movs	r0, #0
 8001cd6:	f884 003c 	strb.w	r0, [r4, #60]	; 0x3c
 8001cda:	bd38      	pop	{r3, r4, r5, pc}
 8001cdc:	6800      	ldr	r0, [r0, #0]
 8001cde:	f7ff ffa9 	bl	8001c34 <TIM_OC2_SetConfig>
 8001ce2:	6823      	ldr	r3, [r4, #0]
 8001ce4:	6909      	ldr	r1, [r1, #16]
 8001ce6:	699a      	ldr	r2, [r3, #24]
 8001ce8:	f442 6200 	orr.w	r2, r2, #2048	; 0x800
 8001cec:	619a      	str	r2, [r3, #24]
 8001cee:	699a      	ldr	r2, [r3, #24]
 8001cf0:	f422 6280 	bic.w	r2, r2, #1024	; 0x400
 8001cf4:	619a      	str	r2, [r3, #24]
 8001cf6:	699a      	ldr	r2, [r3, #24]
 8001cf8:	ea42 2201 	orr.w	r2, r2, r1, lsl #8
 8001cfc:	e7e9      	b.n	8001cd2 <HAL_TIM_PWM_ConfigChannel+0x46>
 8001cfe:	6800      	ldr	r0, [r0, #0]
 8001d00:	f7ff feb8 	bl	8001a74 <TIM_OC3_SetConfig>
 8001d04:	6823      	ldr	r3, [r4, #0]
 8001d06:	6909      	ldr	r1, [r1, #16]
 8001d08:	69da      	ldr	r2, [r3, #28]
 8001d0a:	f042 0208 	orr.w	r2, r2, #8
 8001d0e:	61da      	str	r2, [r3, #28]
 8001d10:	69da      	ldr	r2, [r3, #28]
 8001d12:	f022 0204 	bic.w	r2, r2, #4
 8001d16:	61da      	str	r2, [r3, #28]
 8001d18:	69da      	ldr	r2, [r3, #28]
 8001d1a:	430a      	orrs	r2, r1
 8001d1c:	61da      	str	r2, [r3, #28]
 8001d1e:	e7d9      	b.n	8001cd4 <HAL_TIM_PWM_ConfigChannel+0x48>
 8001d20:	6800      	ldr	r0, [r0, #0]
 8001d22:	f7ff fed1 	bl	8001ac8 <TIM_OC4_SetConfig>
 8001d26:	6823      	ldr	r3, [r4, #0]
 8001d28:	6909      	ldr	r1, [r1, #16]
 8001d2a:	69da      	ldr	r2, [r3, #28]
 8001d2c:	f442 6200 	orr.w	r2, r2, #2048	; 0x800
 8001d30:	61da      	str	r2, [r3, #28]
 8001d32:	69da      	ldr	r2, [r3, #28]
 8001d34:	f422 6280 	bic.w	r2, r2, #1024	; 0x400
 8001d38:	61da      	str	r2, [r3, #28]
 8001d3a:	69da      	ldr	r2, [r3, #28]
 8001d3c:	ea42 2201 	orr.w	r2, r2, r1, lsl #8
 8001d40:	e7ec      	b.n	8001d1c <HAL_TIM_PWM_ConfigChannel+0x90>
 8001d42:	2002      	movs	r0, #2
 8001d44:	e7c9      	b.n	8001cda <HAL_TIM_PWM_ConfigChannel+0x4e>
	...

08001d48 <HAL_TIMEx_MasterConfigSynchronization>:
 8001d48:	f890 303c 	ldrb.w	r3, [r0, #60]	; 0x3c
 8001d4c:	b530      	push	{r4, r5, lr}
 8001d4e:	2b01      	cmp	r3, #1
 8001d50:	f04f 0302 	mov.w	r3, #2
 8001d54:	d025      	beq.n	8001da2 <HAL_TIMEx_MasterConfigSynchronization+0x5a>
 8001d56:	2201      	movs	r2, #1
 8001d58:	f880 303d 	strb.w	r3, [r0, #61]	; 0x3d
 8001d5c:	6803      	ldr	r3, [r0, #0]
 8001d5e:	680d      	ldr	r5, [r1, #0]
 8001d60:	685c      	ldr	r4, [r3, #4]
 8001d62:	f880 203c 	strb.w	r2, [r0, #60]	; 0x3c
 8001d66:	f024 0470 	bic.w	r4, r4, #112	; 0x70
 8001d6a:	432c      	orrs	r4, r5
 8001d6c:	689a      	ldr	r2, [r3, #8]
 8001d6e:	605c      	str	r4, [r3, #4]
 8001d70:	4c0d      	ldr	r4, [pc, #52]	; (8001da8 <HAL_TIMEx_MasterConfigSynchronization+0x60>)
 8001d72:	42a3      	cmp	r3, r4
 8001d74:	d00a      	beq.n	8001d8c <HAL_TIMEx_MasterConfigSynchronization+0x44>
 8001d76:	f1b3 4f80 	cmp.w	r3, #1073741824	; 0x40000000
 8001d7a:	d007      	beq.n	8001d8c <HAL_TIMEx_MasterConfigSynchronization+0x44>
 8001d7c:	f5a4 3494 	sub.w	r4, r4, #75776	; 0x12800
 8001d80:	42a3      	cmp	r3, r4
 8001d82:	d003      	beq.n	8001d8c <HAL_TIMEx_MasterConfigSynchronization+0x44>
 8001d84:	f504 6480 	add.w	r4, r4, #1024	; 0x400
 8001d88:	42a3      	cmp	r3, r4
 8001d8a:	d104      	bne.n	8001d96 <HAL_TIMEx_MasterConfigSynchronization+0x4e>
 8001d8c:	6849      	ldr	r1, [r1, #4]
 8001d8e:	f022 0280 	bic.w	r2, r2, #128	; 0x80
 8001d92:	430a      	orrs	r2, r1
 8001d94:	609a      	str	r2, [r3, #8]
 8001d96:	2301      	movs	r3, #1
 8001d98:	f880 303d 	strb.w	r3, [r0, #61]	; 0x3d
 8001d9c:	2300      	movs	r3, #0
 8001d9e:	f880 303c 	strb.w	r3, [r0, #60]	; 0x3c
 8001da2:	4618      	mov	r0, r3
 8001da4:	bd30      	pop	{r4, r5, pc}
 8001da6:	bf00      	nop
 8001da8:	40012c00 	.word	0x40012c00

08001dac <HAL_TIMEx_ConfigBreakDeadTime>:
 8001dac:	f890 303c 	ldrb.w	r3, [r0, #60]	; 0x3c
 8001db0:	2b01      	cmp	r3, #1
 8001db2:	d01f      	beq.n	8001df4 <HAL_TIMEx_ConfigBreakDeadTime+0x48>
 8001db4:	68cb      	ldr	r3, [r1, #12]
 8001db6:	688a      	ldr	r2, [r1, #8]
 8001db8:	f423 7340 	bic.w	r3, r3, #768	; 0x300
 8001dbc:	4313      	orrs	r3, r2
 8001dbe:	684a      	ldr	r2, [r1, #4]
 8001dc0:	f423 6380 	bic.w	r3, r3, #1024	; 0x400
 8001dc4:	4313      	orrs	r3, r2
 8001dc6:	680a      	ldr	r2, [r1, #0]
 8001dc8:	f423 6300 	bic.w	r3, r3, #2048	; 0x800
 8001dcc:	4313      	orrs	r3, r2
 8001dce:	690a      	ldr	r2, [r1, #16]
 8001dd0:	f423 5380 	bic.w	r3, r3, #4096	; 0x1000
 8001dd4:	4313      	orrs	r3, r2
 8001dd6:	694a      	ldr	r2, [r1, #20]
 8001dd8:	f423 5300 	bic.w	r3, r3, #8192	; 0x2000
 8001ddc:	4313      	orrs	r3, r2
 8001dde:	69ca      	ldr	r2, [r1, #28]
 8001de0:	f423 4380 	bic.w	r3, r3, #16384	; 0x4000
 8001de4:	4313      	orrs	r3, r2
 8001de6:	6802      	ldr	r2, [r0, #0]
 8001de8:	6453      	str	r3, [r2, #68]	; 0x44
 8001dea:	2300      	movs	r3, #0
 8001dec:	f880 303c 	strb.w	r3, [r0, #60]	; 0x3c
 8001df0:	4618      	mov	r0, r3
 8001df2:	4770      	bx	lr
 8001df4:	2002      	movs	r0, #2
 8001df6:	4770      	bx	lr

08001df8 <UART_SetConfig>:
 8001df8:	b510      	push	{r4, lr}
 8001dfa:	4604      	mov	r4, r0
 8001dfc:	6803      	ldr	r3, [r0, #0]
 8001dfe:	68c1      	ldr	r1, [r0, #12]
 8001e00:	691a      	ldr	r2, [r3, #16]
 8001e02:	f422 5240 	bic.w	r2, r2, #12288	; 0x3000
 8001e06:	430a      	orrs	r2, r1
 8001e08:	611a      	str	r2, [r3, #16]
 8001e0a:	6882      	ldr	r2, [r0, #8]
 8001e0c:	6900      	ldr	r0, [r0, #16]
 8001e0e:	68d9      	ldr	r1, [r3, #12]
 8001e10:	4302      	orrs	r2, r0
 8001e12:	6960      	ldr	r0, [r4, #20]
 8001e14:	f421 51b0 	bic.w	r1, r1, #5632	; 0x1600
 8001e18:	f021 010c 	bic.w	r1, r1, #12
 8001e1c:	4302      	orrs	r2, r0
 8001e1e:	430a      	orrs	r2, r1
 8001e20:	60da      	str	r2, [r3, #12]
 8001e22:	695a      	ldr	r2, [r3, #20]
 8001e24:	69a1      	ldr	r1, [r4, #24]
 8001e26:	f422 7240 	bic.w	r2, r2, #768	; 0x300
 8001e2a:	430a      	orrs	r2, r1
 8001e2c:	615a      	str	r2, [r3, #20]
 8001e2e:	4a0e      	ldr	r2, [pc, #56]	; (8001e68 <UART_SetConfig+0x70>)
 8001e30:	4293      	cmp	r3, r2
 8001e32:	d115      	bne.n	8001e60 <UART_SetConfig+0x68>
 8001e34:	f7ff fde6 	bl	8001a04 <HAL_RCC_GetPCLK2Freq>
 8001e38:	2319      	movs	r3, #25
 8001e3a:	4358      	muls	r0, r3
 8001e3c:	6863      	ldr	r3, [r4, #4]
 8001e3e:	2264      	movs	r2, #100	; 0x64
 8001e40:	009b      	lsls	r3, r3, #2
 8001e42:	fbb0 f0f3 	udiv	r0, r0, r3
 8001e46:	fbb0 f1f2 	udiv	r1, r0, r2
 8001e4a:	fb02 0311 	mls	r3, r2, r1, r0
 8001e4e:	011b      	lsls	r3, r3, #4
 8001e50:	3332      	adds	r3, #50	; 0x32
 8001e52:	fbb3 f3f2 	udiv	r3, r3, r2
 8001e56:	6824      	ldr	r4, [r4, #0]
 8001e58:	eb03 1301 	add.w	r3, r3, r1, lsl #4
 8001e5c:	60a3      	str	r3, [r4, #8]
 8001e5e:	bd10      	pop	{r4, pc}
 8001e60:	f7ff fdc0 	bl	80019e4 <HAL_RCC_GetPCLK1Freq>
 8001e64:	e7e8      	b.n	8001e38 <UART_SetConfig+0x40>
 8001e66:	bf00      	nop
 8001e68:	40013800 	.word	0x40013800

08001e6c <UART_WaitOnFlagUntilTimeout.constprop.3>:
 8001e6c:	b5f8      	push	{r3, r4, r5, r6, r7, lr}
 8001e6e:	4604      	mov	r4, r0
 8001e70:	460e      	mov	r6, r1
 8001e72:	4617      	mov	r7, r2
 8001e74:	461d      	mov	r5, r3
 8001e76:	6821      	ldr	r1, [r4, #0]
 8001e78:	680b      	ldr	r3, [r1, #0]
 8001e7a:	ea36 0303 	bics.w	r3, r6, r3
 8001e7e:	d101      	bne.n	8001e84 <UART_WaitOnFlagUntilTimeout.constprop.3+0x18>
 8001e80:	2000      	movs	r0, #0
 8001e82:	e014      	b.n	8001eae <UART_WaitOnFlagUntilTimeout.constprop.3+0x42>
 8001e84:	1c6b      	adds	r3, r5, #1
 8001e86:	d0f7      	beq.n	8001e78 <UART_WaitOnFlagUntilTimeout.constprop.3+0xc>
 8001e88:	b995      	cbnz	r5, 8001eb0 <UART_WaitOnFlagUntilTimeout.constprop.3+0x44>
 8001e8a:	6823      	ldr	r3, [r4, #0]
 8001e8c:	2003      	movs	r0, #3
 8001e8e:	68da      	ldr	r2, [r3, #12]
 8001e90:	f422 72d0 	bic.w	r2, r2, #416	; 0x1a0
 8001e94:	60da      	str	r2, [r3, #12]
 8001e96:	695a      	ldr	r2, [r3, #20]
 8001e98:	f022 0201 	bic.w	r2, r2, #1
 8001e9c:	615a      	str	r2, [r3, #20]
 8001e9e:	2320      	movs	r3, #32
 8001ea0:	f884 3039 	strb.w	r3, [r4, #57]	; 0x39
 8001ea4:	f884 303a 	strb.w	r3, [r4, #58]	; 0x3a
 8001ea8:	2300      	movs	r3, #0
 8001eaa:	f884 3038 	strb.w	r3, [r4, #56]	; 0x38
 8001eae:	bdf8      	pop	{r3, r4, r5, r6, r7, pc}
 8001eb0:	f7fe fe90 	bl	8000bd4 <HAL_GetTick>
 8001eb4:	1bc0      	subs	r0, r0, r7
 8001eb6:	4285      	cmp	r5, r0
 8001eb8:	d2dd      	bcs.n	8001e76 <UART_WaitOnFlagUntilTimeout.constprop.3+0xa>
 8001eba:	e7e6      	b.n	8001e8a <UART_WaitOnFlagUntilTimeout.constprop.3+0x1e>

08001ebc <HAL_UART_Init>:
 8001ebc:	b510      	push	{r4, lr}
 8001ebe:	4604      	mov	r4, r0
 8001ec0:	b340      	cbz	r0, 8001f14 <HAL_UART_Init+0x58>
 8001ec2:	f890 3039 	ldrb.w	r3, [r0, #57]	; 0x39
 8001ec6:	f003 02ff 	and.w	r2, r3, #255	; 0xff
 8001eca:	b91b      	cbnz	r3, 8001ed4 <HAL_UART_Init+0x18>
 8001ecc:	f880 2038 	strb.w	r2, [r0, #56]	; 0x38
 8001ed0:	f7fe fd24 	bl	800091c <HAL_UART_MspInit>
 8001ed4:	2324      	movs	r3, #36	; 0x24
 8001ed6:	6822      	ldr	r2, [r4, #0]
 8001ed8:	f884 3039 	strb.w	r3, [r4, #57]	; 0x39
 8001edc:	68d3      	ldr	r3, [r2, #12]
 8001ede:	4620      	mov	r0, r4
 8001ee0:	f423 5300 	bic.w	r3, r3, #8192	; 0x2000
 8001ee4:	60d3      	str	r3, [r2, #12]
 8001ee6:	f7ff ff87 	bl	8001df8 <UART_SetConfig>
 8001eea:	6823      	ldr	r3, [r4, #0]
 8001eec:	2000      	movs	r0, #0
 8001eee:	691a      	ldr	r2, [r3, #16]
 8001ef0:	f422 4290 	bic.w	r2, r2, #18432	; 0x4800
 8001ef4:	611a      	str	r2, [r3, #16]
 8001ef6:	695a      	ldr	r2, [r3, #20]
 8001ef8:	f022 022a 	bic.w	r2, r2, #42	; 0x2a
 8001efc:	615a      	str	r2, [r3, #20]
 8001efe:	68da      	ldr	r2, [r3, #12]
 8001f00:	f442 5200 	orr.w	r2, r2, #8192	; 0x2000
 8001f04:	60da      	str	r2, [r3, #12]
 8001f06:	2320      	movs	r3, #32
 8001f08:	63e0      	str	r0, [r4, #60]	; 0x3c
 8001f0a:	f884 3039 	strb.w	r3, [r4, #57]	; 0x39
 8001f0e:	f884 303a 	strb.w	r3, [r4, #58]	; 0x3a
 8001f12:	bd10      	pop	{r4, pc}
 8001f14:	2001      	movs	r0, #1
 8001f16:	e7fc      	b.n	8001f12 <HAL_UART_Init+0x56>

08001f18 <HAL_UART_DeInit>:
 8001f18:	b510      	push	{r4, lr}
 8001f1a:	4604      	mov	r4, r0
 8001f1c:	b190      	cbz	r0, 8001f44 <HAL_UART_DeInit+0x2c>
 8001f1e:	2324      	movs	r3, #36	; 0x24
 8001f20:	6802      	ldr	r2, [r0, #0]
 8001f22:	f880 3039 	strb.w	r3, [r0, #57]	; 0x39
 8001f26:	68d3      	ldr	r3, [r2, #12]
 8001f28:	f423 5300 	bic.w	r3, r3, #8192	; 0x2000
 8001f2c:	60d3      	str	r3, [r2, #12]
 8001f2e:	f7fe fd39 	bl	80009a4 <HAL_UART_MspDeInit>
 8001f32:	2000      	movs	r0, #0
 8001f34:	63e0      	str	r0, [r4, #60]	; 0x3c
 8001f36:	f884 0038 	strb.w	r0, [r4, #56]	; 0x38
 8001f3a:	f884 0039 	strb.w	r0, [r4, #57]	; 0x39
 8001f3e:	f884 003a 	strb.w	r0, [r4, #58]	; 0x3a
 8001f42:	bd10      	pop	{r4, pc}
 8001f44:	2001      	movs	r0, #1
 8001f46:	e7fc      	b.n	8001f42 <HAL_UART_DeInit+0x2a>

08001f48 <HAL_UART_Transmit>:
 8001f48:	e92d 43f8 	stmdb	sp!, {r3, r4, r5, r6, r7, r8, r9, lr}
 8001f4c:	4698      	mov	r8, r3
 8001f4e:	f890 3039 	ldrb.w	r3, [r0, #57]	; 0x39
 8001f52:	4604      	mov	r4, r0
 8001f54:	2b20      	cmp	r3, #32
 8001f56:	460e      	mov	r6, r1
 8001f58:	4691      	mov	r9, r2
 8001f5a:	d14a      	bne.n	8001ff2 <HAL_UART_Transmit+0xaa>
 8001f5c:	2900      	cmp	r1, #0
 8001f5e:	d046      	beq.n	8001fee <HAL_UART_Transmit+0xa6>
 8001f60:	2a00      	cmp	r2, #0
 8001f62:	d044      	beq.n	8001fee <HAL_UART_Transmit+0xa6>
 8001f64:	f890 3038 	ldrb.w	r3, [r0, #56]	; 0x38
 8001f68:	2b01      	cmp	r3, #1
 8001f6a:	d042      	beq.n	8001ff2 <HAL_UART_Transmit+0xaa>
 8001f6c:	2301      	movs	r3, #1
 8001f6e:	2500      	movs	r5, #0
 8001f70:	f880 3038 	strb.w	r3, [r0, #56]	; 0x38
 8001f74:	2321      	movs	r3, #33	; 0x21
 8001f76:	63c5      	str	r5, [r0, #60]	; 0x3c
 8001f78:	f880 3039 	strb.w	r3, [r0, #57]	; 0x39
 8001f7c:	f7fe fe2a 	bl	8000bd4 <HAL_GetTick>
 8001f80:	68a3      	ldr	r3, [r4, #8]
 8001f82:	4607      	mov	r7, r0
 8001f84:	f5b3 5f80 	cmp.w	r3, #4096	; 0x1000
 8001f88:	f8a4 9024 	strh.w	r9, [r4, #36]	; 0x24
 8001f8c:	f8a4 9026 	strh.w	r9, [r4, #38]	; 0x26
 8001f90:	d103      	bne.n	8001f9a <HAL_UART_Transmit+0x52>
 8001f92:	6923      	ldr	r3, [r4, #16]
 8001f94:	b90b      	cbnz	r3, 8001f9a <HAL_UART_Transmit+0x52>
 8001f96:	4635      	mov	r5, r6
 8001f98:	461e      	mov	r6, r3
 8001f9a:	2300      	movs	r3, #0
 8001f9c:	f884 3038 	strb.w	r3, [r4, #56]	; 0x38
 8001fa0:	8ce3      	ldrh	r3, [r4, #38]	; 0x26
 8001fa2:	b29b      	uxth	r3, r3
 8001fa4:	b953      	cbnz	r3, 8001fbc <HAL_UART_Transmit+0x74>
 8001fa6:	4643      	mov	r3, r8
 8001fa8:	463a      	mov	r2, r7
 8001faa:	2140      	movs	r1, #64	; 0x40
 8001fac:	4620      	mov	r0, r4
 8001fae:	f7ff ff5d 	bl	8001e6c <UART_WaitOnFlagUntilTimeout.constprop.3>
 8001fb2:	b950      	cbnz	r0, 8001fca <HAL_UART_Transmit+0x82>
 8001fb4:	2320      	movs	r3, #32
 8001fb6:	f884 3039 	strb.w	r3, [r4, #57]	; 0x39
 8001fba:	e007      	b.n	8001fcc <HAL_UART_Transmit+0x84>
 8001fbc:	4643      	mov	r3, r8
 8001fbe:	463a      	mov	r2, r7
 8001fc0:	2180      	movs	r1, #128	; 0x80
 8001fc2:	4620      	mov	r0, r4
 8001fc4:	f7ff ff52 	bl	8001e6c <UART_WaitOnFlagUntilTimeout.constprop.3>
 8001fc8:	b110      	cbz	r0, 8001fd0 <HAL_UART_Transmit+0x88>
 8001fca:	2003      	movs	r0, #3
 8001fcc:	e8bd 83f8 	ldmia.w	sp!, {r3, r4, r5, r6, r7, r8, r9, pc}
 8001fd0:	6822      	ldr	r2, [r4, #0]
 8001fd2:	b94e      	cbnz	r6, 8001fe8 <HAL_UART_Transmit+0xa0>
 8001fd4:	f835 3b02 	ldrh.w	r3, [r5], #2
 8001fd8:	f3c3 0308 	ubfx	r3, r3, #0, #9
 8001fdc:	6053      	str	r3, [r2, #4]
 8001fde:	8ce3      	ldrh	r3, [r4, #38]	; 0x26
 8001fe0:	3b01      	subs	r3, #1
 8001fe2:	b29b      	uxth	r3, r3
 8001fe4:	84e3      	strh	r3, [r4, #38]	; 0x26
 8001fe6:	e7db      	b.n	8001fa0 <HAL_UART_Transmit+0x58>
 8001fe8:	f816 3b01 	ldrb.w	r3, [r6], #1
 8001fec:	e7f6      	b.n	8001fdc <HAL_UART_Transmit+0x94>
 8001fee:	2001      	movs	r0, #1
 8001ff0:	e7ec      	b.n	8001fcc <HAL_UART_Transmit+0x84>
 8001ff2:	2002      	movs	r0, #2
 8001ff4:	e7ea      	b.n	8001fcc <HAL_UART_Transmit+0x84>

08001ff6 <HAL_UART_Receive>:
 8001ff6:	e92d 43f8 	stmdb	sp!, {r3, r4, r5, r6, r7, r8, r9, lr}
 8001ffa:	4698      	mov	r8, r3
 8001ffc:	f890 303a 	ldrb.w	r3, [r0, #58]	; 0x3a
 8002000:	4604      	mov	r4, r0
 8002002:	2b20      	cmp	r3, #32
 8002004:	460e      	mov	r6, r1
 8002006:	4691      	mov	r9, r2
 8002008:	d14d      	bne.n	80020a6 <HAL_UART_Receive+0xb0>
 800200a:	2900      	cmp	r1, #0
 800200c:	d049      	beq.n	80020a2 <HAL_UART_Receive+0xac>
 800200e:	2a00      	cmp	r2, #0
 8002010:	d047      	beq.n	80020a2 <HAL_UART_Receive+0xac>
 8002012:	f890 3038 	ldrb.w	r3, [r0, #56]	; 0x38
 8002016:	2b01      	cmp	r3, #1
 8002018:	d045      	beq.n	80020a6 <HAL_UART_Receive+0xb0>
 800201a:	2301      	movs	r3, #1
 800201c:	2500      	movs	r5, #0
 800201e:	f880 3038 	strb.w	r3, [r0, #56]	; 0x38
 8002022:	2322      	movs	r3, #34	; 0x22
 8002024:	63c5      	str	r5, [r0, #60]	; 0x3c
 8002026:	f880 303a 	strb.w	r3, [r0, #58]	; 0x3a
 800202a:	f7fe fdd3 	bl	8000bd4 <HAL_GetTick>
 800202e:	68a3      	ldr	r3, [r4, #8]
 8002030:	4607      	mov	r7, r0
 8002032:	f5b3 5f80 	cmp.w	r3, #4096	; 0x1000
 8002036:	f8a4 902c 	strh.w	r9, [r4, #44]	; 0x2c
 800203a:	f8a4 902e 	strh.w	r9, [r4, #46]	; 0x2e
 800203e:	d103      	bne.n	8002048 <HAL_UART_Receive+0x52>
 8002040:	6923      	ldr	r3, [r4, #16]
 8002042:	b90b      	cbnz	r3, 8002048 <HAL_UART_Receive+0x52>
 8002044:	4635      	mov	r5, r6
 8002046:	461e      	mov	r6, r3
 8002048:	2300      	movs	r3, #0
 800204a:	f884 3038 	strb.w	r3, [r4, #56]	; 0x38
 800204e:	8de0      	ldrh	r0, [r4, #46]	; 0x2e
 8002050:	b280      	uxth	r0, r0
 8002052:	b920      	cbnz	r0, 800205e <HAL_UART_Receive+0x68>
 8002054:	2320      	movs	r3, #32
 8002056:	f884 303a 	strb.w	r3, [r4, #58]	; 0x3a
 800205a:	e8bd 83f8 	ldmia.w	sp!, {r3, r4, r5, r6, r7, r8, r9, pc}
 800205e:	4643      	mov	r3, r8
 8002060:	463a      	mov	r2, r7
 8002062:	2120      	movs	r1, #32
 8002064:	4620      	mov	r0, r4
 8002066:	f7ff ff01 	bl	8001e6c <UART_WaitOnFlagUntilTimeout.constprop.3>
 800206a:	b9f0      	cbnz	r0, 80020aa <HAL_UART_Receive+0xb4>
 800206c:	6823      	ldr	r3, [r4, #0]
 800206e:	b94e      	cbnz	r6, 8002084 <HAL_UART_Receive+0x8e>
 8002070:	685b      	ldr	r3, [r3, #4]
 8002072:	f3c3 0308 	ubfx	r3, r3, #0, #9
 8002076:	f825 3b02 	strh.w	r3, [r5], #2
 800207a:	8de3      	ldrh	r3, [r4, #46]	; 0x2e
 800207c:	3b01      	subs	r3, #1
 800207e:	b29b      	uxth	r3, r3
 8002080:	85e3      	strh	r3, [r4, #46]	; 0x2e
 8002082:	e7e4      	b.n	800204e <HAL_UART_Receive+0x58>
 8002084:	68a2      	ldr	r2, [r4, #8]
 8002086:	f5b2 5f80 	cmp.w	r2, #4096	; 0x1000
 800208a:	d002      	beq.n	8002092 <HAL_UART_Receive+0x9c>
 800208c:	b92a      	cbnz	r2, 800209a <HAL_UART_Receive+0xa4>
 800208e:	6922      	ldr	r2, [r4, #16]
 8002090:	b91a      	cbnz	r2, 800209a <HAL_UART_Receive+0xa4>
 8002092:	685b      	ldr	r3, [r3, #4]
 8002094:	7033      	strb	r3, [r6, #0]
 8002096:	3601      	adds	r6, #1
 8002098:	e7ef      	b.n	800207a <HAL_UART_Receive+0x84>
 800209a:	685b      	ldr	r3, [r3, #4]
 800209c:	f003 037f 	and.w	r3, r3, #127	; 0x7f
 80020a0:	e7f8      	b.n	8002094 <HAL_UART_Receive+0x9e>
 80020a2:	2001      	movs	r0, #1
 80020a4:	e7d9      	b.n	800205a <HAL_UART_Receive+0x64>
 80020a6:	2002      	movs	r0, #2
 80020a8:	e7d7      	b.n	800205a <HAL_UART_Receive+0x64>
 80020aa:	2003      	movs	r0, #3
 80020ac:	e7d5      	b.n	800205a <HAL_UART_Receive+0x64>
	...

080020b0 <__libc_init_array>:
 80020b0:	b570      	push	{r4, r5, r6, lr}
 80020b2:	2500      	movs	r5, #0
 80020b4:	4e0c      	ldr	r6, [pc, #48]	; (80020e8 <__libc_init_array+0x38>)
 80020b6:	4c0d      	ldr	r4, [pc, #52]	; (80020ec <__libc_init_array+0x3c>)
 80020b8:	1ba4      	subs	r4, r4, r6
 80020ba:	10a4      	asrs	r4, r4, #2
 80020bc:	42a5      	cmp	r5, r4
 80020be:	d109      	bne.n	80020d4 <__libc_init_array+0x24>
 80020c0:	f000 f822 	bl	8002108 <_init>
 80020c4:	2500      	movs	r5, #0
 80020c6:	4e0a      	ldr	r6, [pc, #40]	; (80020f0 <__libc_init_array+0x40>)
 80020c8:	4c0a      	ldr	r4, [pc, #40]	; (80020f4 <__libc_init_array+0x44>)
 80020ca:	1ba4      	subs	r4, r4, r6
 80020cc:	10a4      	asrs	r4, r4, #2
 80020ce:	42a5      	cmp	r5, r4
 80020d0:	d105      	bne.n	80020de <__libc_init_array+0x2e>
 80020d2:	bd70      	pop	{r4, r5, r6, pc}
 80020d4:	f856 3025 	ldr.w	r3, [r6, r5, lsl #2]
 80020d8:	4798      	blx	r3
 80020da:	3501      	adds	r5, #1
 80020dc:	e7ee      	b.n	80020bc <__libc_init_array+0xc>
 80020de:	f856 3025 	ldr.w	r3, [r6, r5, lsl #2]
 80020e2:	4798      	blx	r3
 80020e4:	3501      	adds	r5, #1
 80020e6:	e7f2      	b.n	80020ce <__libc_init_array+0x1e>
 80020e8:	08002244 	.word	0x08002244
 80020ec:	08002244 	.word	0x08002244
 80020f0:	08002244 	.word	0x08002244
 80020f4:	08002248 	.word	0x08002248

080020f8 <memset>:
 80020f8:	4603      	mov	r3, r0
 80020fa:	4402      	add	r2, r0
 80020fc:	4293      	cmp	r3, r2
 80020fe:	d100      	bne.n	8002102 <memset+0xa>
 8002100:	4770      	bx	lr
 8002102:	f803 1b01 	strb.w	r1, [r3], #1
 8002106:	e7f9      	b.n	80020fc <memset+0x4>

08002108 <_init>:
 8002108:	b5f8      	push	{r3, r4, r5, r6, r7, lr}
 800210a:	bf00      	nop
 800210c:	bcf8      	pop	{r3, r4, r5, r6, r7}
 800210e:	bc08      	pop	{r3}
 8002110:	469e      	mov	lr, r3
 8002112:	4770      	bx	lr

08002114 <_fini>:
 8002114:	b5f8      	push	{r3, r4, r5, r6, r7, lr}
 8002116:	bf00      	nop
 8002118:	bcf8      	pop	{r3, r4, r5, r6, r7}
 800211a:	bc08      	pop	{r3}
 800211c:	469e      	mov	lr, r3
 800211e:	4770      	bx	lr
